(dp0
S'METTS MARK'
p1
(dp2
S'to_messages'
p3
I807
sS'restricted_stock_deferred'
p4
F0.1036542684938879
sS'deferral_payments'
p5
F0.015698010104923967
sS'frac_bonus'
p6
F0.10874916535367814
sS'expenses'
p7
F0.41221263928170204
sS'poi'
p8
I00
sS'deferred_income'
p9
F1.0
sS'email_address'
p10
S'mark.metts@enron.com'
p11
sS'long_term_incentive'
p12
F0.0
sS'frac_expenses'
p13
F0.08880825219174121
sS'frac_deferral_payments'
p14
F0.5
sS'frac_exercised_stock_options'
p15
F0.5
sS'shared_receipt_with_poi'
p16
I0
sS'loan_advances'
p17
F0.0
sS'from_messages'
p18
I29
sS'other'
p19
F0.00016795806145122137
sS'director_fees'
p20
F0.0
sS'frac_loan_advances'
p21
F0.0
sS'frac_deferred_income'
p22
F1.0
sS'frac_restricted_stock_deferred'
p23
F1.0
sS'fraction_from_poi'
p24
F0.21665480239394658
sS'bonus'
p25
F0.075
sS'total_stock_value'
p26
I585062
sS'from_poi_to_this_person'
p27
I0
sS'from_this_person_to_poi'
p28
I0
sS'restricted_stock'
p29
F0.18366452871857167
sS'salary'
p30
F0.329165684296536
sS'total_payments'
p31
I1061827
sS'fraction_to_poi'
p32
F0.034482758620689655
sS'exercised_stock_options'
p33
F0.0
sS'frac_salary'
p34
F0.36340434446027864
sS'frac_restricted_stock'
p35
F0.3333333333333333
sS'frac_long_term_incentive'
p36
F0.0
sS'frac_shared_receipt_with_poi'
p37
F0.868893180097488
sS'frac_other'
p38
F0.0016386850211946014
ssS'BAXTER JOHN C'
p39
(dp40
g3
S'NaN'
p41
sg4
F0.1036542684938879
sg5
F0.21414199271306028
sS'frac_bonus'
p42
F0.040988913880464856
sg7
F0.04895896626639797
sg8
I00
sg9
F0.6044799288662835
sg10
g41
sg12
F0.3082451353957703
sS'frac_expenses'
p43
F0.001987809403864834
sS'frac_deferral_payments'
p44
F0.6149857223814738
sS'frac_exercised_stock_options'
p45
F0.5
sg16
cnumpy.core.multiarray
scalar
p46
(cnumpy
dtype
p47
(S'f8'
p48
I0
I1
tp49
Rp50
(I3
S'<'
p51
NNNI-1
I-1
I0
tp52
bS'\xabW\x82\x9a\xb3 \xc1?'
p53
tp54
Rp55
sg17
F0.0
sg18
g41
sg19
F0.25679272112233825
sg20
F0.0
sS'frac_loan_advances'
p56
F0.0
sS'frac_deferred_income'
p57
F0.9996490778415107
sS'frac_restricted_stock_deferred'
p58
F1.0
sg24
F0.0
sg25
F0.15
sg26
I10623258
sg27
g46
(g50
S'\xf8\xe0\x83\x0f>\xf8\xb0?'
p59
tp60
Rp61
sg28
g46
(g50
S'\t*\x1c\xdd2\xe7\x8a?'
p62
tp63
Rp64
sg29
F0.377008789035058
sg30
F0.2403600244047737
sg31
I5634343
sg32
F0.0
sg33
F0.1944936914644951
sS'frac_salary'
p65
F0.05000901302241649
sS'frac_restricted_stock'
p66
F0.0
sS'frac_long_term_incentive'
p67
F0.05025527949769721
sg37
F0.0
sS'frac_other'
p68
F0.4721585107615919
ssS'ELLIOTT STEVEN'
p69
(dp70
g3
g41
sg4
F0.1036542684938879
sg5
F0.015698010104923967
sS'frac_bonus'
p71
F0.3181444483803676
sg7
F0.34337720697840124
sg8
I00
sg9
F0.8856492977657142
sg10
S'steven.elliott@enron.com'
p72
sg12
F0.0
sS'frac_expenses'
p73
F0.371009564293305
sS'frac_deferral_payments'
p74
F0.5
sS'frac_exercised_stock_options'
p75
F0.5
sg16
g46
(g50
S'\xabW\x82\x9a\xb3 \xc1?'
p76
tp77
Rp78
sg17
F0.0
sg18
g41
sg19
F0.0012510945025685518
sg20
F0.0
sS'frac_loan_advances'
p79
F0.0
sS'frac_deferred_income'
p80
F0.9973000716375954
sS'frac_restricted_stock_deferred'
p81
F1.0
sg24
F0.0
sg25
F0.04375
sg26
I6678735
sg27
g46
(g50
S'\xf8\xe0\x83\x0f>\xf8\xb0?'
p82
tp83
Rp84
sg28
g46
(g50
S'\t*\x1c\xdd2\xe7\x8a?'
p85
tp86
Rp87
sg29
F0.2529560322521056
sg30
F0.15382656412822224
sg31
I211725
sg32
F0.0
sg33
F0.14237479119832827
sS'frac_salary'
p88
F0.8517036805746897
sS'frac_restricted_stock'
p89
F0.0
sS'frac_long_term_incentive'
p90
F0.0
sg37
F0.0
sS'frac_other'
p91
F0.06121620025977093
ssS'CORDES WILLIAM R'
p92
(dp93
g3
I764
sg4
F0.1036542684938879
sg5
F0.015698010104923967
sS'frac_bonus'
p94
F0.0
sg7
F0.0
sg8
I00
sg9
F1.0
sg10
S'bill.cordes@enron.com'
p95
sg12
F0.0
sS'frac_expenses'
p96
F0.0
sS'frac_deferral_payments'
p97
F0.5
sS'frac_exercised_stock_options'
p98
F0.5
sg16
I0
sg17
F0.0
sg18
I12
sg19
F0.0
sg20
F0.0
sS'frac_loan_advances'
p99
F0.0
sS'frac_deferred_income'
p100
F1.0
sS'frac_restricted_stock_deferred'
p101
F1.0
sg24
F0.060223348557424526
sg25
F0.0
sg26
I1038185
sg27
I0
sg28
I0
sg29
F0.1722211972417199
sg30
F0.0
sg31
F0.0
sg32
F0.0
sg33
F0.018977603138476618
sS'frac_salary'
p102
F0.0
sS'frac_restricted_stock'
p103
F0.0
sS'frac_long_term_incentive'
p104
F0.0
sg37
F0.07582936969101561
sS'frac_other'
p105
F0.0
ssS'HANNON KEVIN P'
p106
(dp107
g3
I1045
sg4
F0.1036542684938879
sg5
F0.015698010104923967
sS'frac_bonus'
p108
F1.0
sg7
F0.14879591542338577
sg8
I01
sg9
F0.11054004895579425
sg10
S'kevin.hannon@enron.com'
p109
sg12
F0.31426134316366705
sS'frac_expenses'
p110
F0.11791175064603959
sS'frac_deferral_payments'
p111
F0.5
sS'frac_exercised_stock_options'
p112
F0.5
sg16
I0
sg17
F0.0
sg18
I32
sg19
F0.0010955885042938864
sg20
F0.0
sS'frac_loan_advances'
p113
F0.0
sS'frac_deferred_income'
p114
F0.9845974637536297
sS'frac_restricted_stock_deferred'
p115
F1.0
sg24
F0.14089382062506361
sg25
F0.1875
sg26
I6391065
sg27
I0
sg28
I0
sg29
F0.19909693459426664
sg30
F0.2189347568251477
sg31
I288682
sg32
F0.65625
sg33
F0.1612303216360921
sS'frac_salary'
p116
F0.8890462071485724
sS'frac_restricted_stock'
p117
F0.0
sS'frac_long_term_incentive'
p118
F1.0
sg37
F0.989297406194913
sS'frac_other'
p119
F0.039316618285864725
ssS'MORDAUNT KRISTINA M'
p120
(dp121
g3
g41
sg4
F0.1036542684938879
sg5
F0.015698010104923967
sS'frac_bonus'
p122
F0.09951563615381269
sg7
F0.1530754536354218
sg8
I00
sg9
F1.0
sg10
S'kristina.mordaunt@enron.com'
p123
sg12
F0.0
sS'frac_expenses'
p124
F0.05571483575753912
sS'frac_deferral_payments'
p125
F0.5
sS'frac_exercised_stock_options'
p126
F0.5
sg16
g46
(g50
S'\xabW\x82\x9a\xb3 \xc1?'
p127
tp128
Rp129
sg17
F0.0
sg18
g41
sg19
F0.0001362004739699272
sg20
F0.0
sS'frac_loan_advances'
p130
F0.0
sS'frac_deferred_income'
p131
F1.0
sS'frac_restricted_stock_deferred'
p132
F1.0
sg24
F0.0
sg25
F0.040625
sg26
I208510
sg27
g46
(g50
S'\xf8\xe0\x83\x0f>\xf8\xb0?'
p133
tp134
Rp135
sg28
g46
(g50
S'\t*\x1c\xdd2\xe7\x8a?'
p136
tp137
Rp138
sg29
F0.16198146927384854
sg30
F0.24035192547545214
sg31
I628522
sg32
F0.0
sg33
F0.0
sS'frac_salary'
p139
F0.44828731260205806
sS'frac_restricted_stock'
p140
F0.3333333333333333
sS'frac_long_term_incentive'
p141
F0.0
sg37
F0.0
sS'frac_other'
p142
F0.002244949261919233
ssS'MEYER ROCKFORD G'
p143
(dp144
g3
I232
sg4
F0.1036542684938879
sg5
F0.2987564112970538
sS'frac_bonus'
p145
F0.0
sg7
F0.0
sg8
I00
sg9
F1.0
sg10
S'rockford.meyer@enron.com'
p146
sg12
F0.0
sS'frac_expenses'
p147
F0.0
sS'frac_deferral_payments'
p148
F1.0
sS'frac_exercised_stock_options'
p149
F0.5
sg16
I0
sg17
F0.0
sg18
I28
sg19
F0.0
sg20
F0.0
sS'frac_loan_advances'
p150
F0.0
sS'frac_deferred_income'
p151
F1.0
sS'frac_restricted_stock_deferred'
p152
F1.0
sg24
F0.0
sg25
F0.0
sg26
I955873
sg27
I0
sg28
I0
sg29
F0.17660034006319408
sg30
F0.0
sg31
I1848227
sg32
F0.0
sg33
F0.014367167899369006
sS'frac_salary'
p153
F0.0
sS'frac_restricted_stock'
p154
F0.0
sS'frac_long_term_incentive'
p155
F0.0
sg37
F0.09471908782450879
sS'frac_other'
p156
F0.0
ssS'MCMAHON JEFFREY'
p157
(dp158
g3
I2355
sg4
F0.1036542684938879
sg5
F0.015698010104923967
sS'frac_bonus'
p159
F0.12205123977249785
sg7
F0.5993451738261869
sg8
I00
sg9
F1.0
sg10
S'jeffrey.mcmahon@enron.com'
p160
sg12
F0.13504439081329195
sS'frac_expenses'
p161
F0.033442843514918275
sS'frac_deferral_payments'
p162
F0.5
sS'frac_exercised_stock_options'
p163
F0.5
sg16
I0
sg17
F0.0
sg18
I48
sg19
F0.028702777842933923
sg20
F0.0
sS'frac_loan_advances'
p164
F0.0
sS'frac_deferred_income'
p165
F1.0
sS'frac_restricted_stock_deferred'
p166
F1.0
sg24
F0.11331707096715907
sg25
F0.325
sg26
I1662855
sg27
I0
sg28
I0
sg29
F0.1821523369785786
sg30
F0.3333591299230242
sg31
I4099771
sg32
F0.5416666666666666
sg33
F0.03214282220671575
sS'frac_salary'
p167
F0.09531957134387763
sS'frac_restricted_stock'
p168
F0.0
sS'frac_long_term_incentive'
p169
F0.030258381491481245
sg37
F0.9449897243801834
sS'frac_other'
p170
F0.07252917297088057
ssS'HORTON STANLEY C'
p171
(dp172
g3
I2350
sg4
F0.1036542684938879
sg5
F0.49534649719962814
sS'frac_bonus'
p173
F0.0
sg7
F0.0
sg8
I00
sg9
F1.0
sg10
S'stanley.horton@enron.com'
p174
sg12
F0.0
sS'frac_expenses'
p175
F0.0
sS'frac_deferral_payments'
p176
F1.0
sS'frac_exercised_stock_options'
p177
F0.5
sg16
I0
sg17
F0.0
sg18
I1073
sg19
F0.0
sg20
F0.0
sS'frac_loan_advances'
p178
F0.0
sS'frac_deferred_income'
p179
F1.0
sS'frac_restricted_stock_deferred'
p180
F1.0
sg24
F0.08614757808963332
sg25
F0.0
sg26
I7256648
sg27
I0
sg28
I0
sg29
F0.26779452526818787
sg30
F0.0
sg31
I3131860
sg32
F0.013979496738117428
sg33
F0.15169764609595607
sS'frac_salary'
p181
F0.0
sS'frac_restricted_stock'
p182
F0.0
sS'frac_long_term_incentive'
p183
F0.0
sg37
F0.45649836895661916
sS'frac_other'
p184
F0.0
ssS'PIPER GREGORY F'
p185
(dp186
g3
I1238
sg4
F0.07990329204861842
sg5
F0.18876451300178115
sS'frac_bonus'
p187
F0.04430282106633042
sg7
F0.1882166259403837
sg8
I00
sg9
F0.9904882053518077
sg10
S'greg.piper@enron.com'
p188
sg12
F0.0
sS'frac_expenses'
p189
F0.024779167474760146
sS'frac_deferral_payments'
p190
F0.8251660740008367
sS'frac_exercised_stock_options'
p191
F1.0
sg16
I0
sg17
F0.0
sg18
I222
sg19
F7.509848954543116e-05
sg20
F0.0
sS'frac_loan_advances'
p192
F0.0
sS'frac_deferred_income'
p193
F0.9999726352833078
sS'frac_restricted_stock_deferred'
p194
F0.6666666666666666
sg24
F0.22670831471487984
sg25
F0.05
sg26
I880290
sg27
I0
sg28
I0
sg29
F0.17355822096552703
sg30
F0.1773584532124853
sg31
I1737629
sg32
F0.21621621621621623
sg33
F0.025628279921407655
sS'frac_salary'
p195
F0.11965315713106875
sS'frac_restricted_stock'
p196
F0.0
sS'frac_long_term_incentive'
p197
F0.0
sg37
F0.5986680369533794
sS'frac_other'
p198
F0.00044773654215025184
ssS'HUMPHREY GENE E'
p199
(dp200
g3
I128
sg4
F0.1036542684938879
sg5
F0.46971601151085307
sS'frac_bonus'
p201
F0.0
sg7
F0.021830453351284956
sg8
I00
sg9
F1.0
sg10
S'gene.humphrey@enron.com'
p202
sg12
F0.0
sS'frac_expenses'
p203
F0.0016108513449350757
sS'frac_deferral_payments'
p204
F0.9781115816147479
sS'frac_exercised_stock_options'
p205
F1.0
sg16
I0
sg17
F0.0
sg18
I17
sg19
F0.0
sg20
F0.0
sS'frac_loan_advances'
p206
F0.0
sS'frac_deferred_income'
p207
F1.0
sS'frac_restricted_stock_deferred'
p208
F1.0
sg24
F0.35945811170212766
sg25
F0.0
sg26
I2282768
sg27
I0
sg28
I0
sg29
F0.1499748016029313
sg30
F0.1176360485143864
sg31
I3100224
sg32
F1.0
sg33
F0.0664592546770177
sS'frac_salary'
p209
F0.04448121891071977
sS'frac_restricted_stock'
p210
F0.0
sS'frac_long_term_incentive'
p211
F0.0
sg37
F0.9286237843249427
sS'frac_other'
p212
F0.0
ssS'UMANOFF ADAM S'
p213
(dp214
g3
I111
sg4
F0.1036542684938879
sg5
F0.015698010104923967
sS'frac_bonus'
p215
F0.13428027887148103
sg7
F0.2322141255360351
sg8
I00
sg9
F1.0
sg10
S'adam.umanoff@enron.com'
p216
sg12
F0.0
sS'frac_expenses'
p217
F0.04699144862140313
sS'frac_deferral_payments'
p218
F0.5
sS'frac_exercised_stock_options'
p219
F0.5
sg16
I0
sg17
F0.0
sg18
I18
sg19
F0.0
sg20
F0.0
sS'frac_loan_advances'
p220
F0.0
sS'frac_deferred_income'
p221
F1.0
sS'frac_restricted_stock_deferred'
p222
F1.0
sg24
F0.4974123059229442
sg25
F0.09859375
sg26
F0.0
sg27
I0
sg28
I0
sg29
F0.1499748016029313
sg30
F0.2596957682194414
sg31
I1130461
sg32
F0.0
sg33
F0.0
sS'frac_salary'
p223
F0.26930140206245107
sS'frac_restricted_stock'
p224
F0.0
sS'frac_long_term_incentive'
p225
F0.0
sg37
F0.3689467499536149
sS'frac_other'
p226
F0.0
ssS'BLACHMAN JEREMY M'
p227
(dp228
g3
I2475
sg4
F0.1036542684938879
sg5
F0.015698010104923967
sS'frac_bonus'
p229
F0.08119099909752742
sg7
F0.3681014849429322
sg8
I00
sg9
F1.0
sg10
S'jeremy.blachman@enron.com'
p230
sg12
F0.16165963842894496
sS'frac_expenses'
p231
F0.04179399305650339
sS'frac_deferral_payments'
p232
F0.5
sS'frac_exercised_stock_options'
p233
F0.5
sg16
I0
sg17
F0.0
sg18
I14
sg19
F2.62555130544438e-05
sg20
F0.0
sS'frac_loan_advances'
p234
F0.0
sS'frac_deferred_income'
p235
F1.0
sS'frac_restricted_stock_deferred'
p236
F1.0
sg24
F0.046475392220073075
sg25
F0.10625
sg26
I954354
sg27
I0
sg28
I0
sg29
F0.16086038245362366
sg30
F0.22366183190582206
sg31
I2014835
sg32
F0.14285714285714285
sg33
F0.022280902647414214
sS'frac_salary'
p237
F0.13013128462016021
sS'frac_restricted_stock'
p238
F0.0
sS'frac_long_term_incentive'
p239
F0.07370396632863153
sg37
F0.9387226960682338
sS'frac_other'
p240
F0.0001349986475319319
ssS'SUNDE MARTIN'
p241
(dp242
g3
I2647
sg4
F0.1036542684938879
sg5
F0.015698010104923967
sS'frac_bonus'
p243
F0.08719295940586519
sg7
F0.0
sg8
I00
sg9
F1.0
sg10
S'marty.sunde@enron.com'
p244
sg12
F0.09259685383196053
sS'frac_expenses'
p245
F0.0
sS'frac_deferral_payments'
p246
F0.5
sS'frac_exercised_stock_options'
p247
F0.5
sg16
I0
sg17
F0.0
sg18
I38
sg19
F0.010726342358955528
sg20
F0.0
sS'frac_loan_advances'
p248
F0.0
sS'frac_deferred_income'
p249
F1.0
sS'frac_restricted_stock_deferred'
p250
F1.0
sg24
F0.06431407695584725
sg25
F0.0875
sg26
I698920
sg27
I0
sg28
I0
sg29
F0.19022083377672377
sg30
F0.2317067683652221
sg31
I1545059
sg32
F0.34210526315789475
sg33
F0.0
sS'frac_salary'
p251
F0.17580166251354395
sS'frac_restricted_stock'
p252
F0.3333333333333333
sS'frac_long_term_incentive'
p253
F0.0550528625724746
sg37
F0.96791281352146
sS'frac_other'
p254
F0.07192087810238962
ssS'GIBBS DANA R'
p255
(dp256
g3
I169
sg4
F0.1036542684938879
sg5
F0.0929796967297599
sS'frac_bonus'
p257
F0.0
sg7
F0.0
sg8
I00
sg9
F1.0
sg10
S'dana.gibbs@enron.com'
p258
sg12
F0.08977124184276779
sS'frac_expenses'
p259
F0.0
sS'frac_deferral_payments'
p260
F0.7610442390343934
sS'frac_exercised_stock_options'
p261
F1.0
sg16
I0
sg17
F0.0
sg18
I12
sg19
F0.0
sg20
F0.0
sS'frac_loan_advances'
p262
F0.0
sS'frac_deferred_income'
p263
F1.0
sS'frac_restricted_stock_deferred'
p264
F1.0
sg24
F0.0
sg25
F0.0
sg26
I2218275
sg27
I0
sg28
I0
sg29
F0.1499748016029313
sg30
F0.0
sg31
I966522
sg32
F0.0
sg33
F0.06458164087137258
sS'frac_salary'
p265
F0.0
sS'frac_restricted_stock'
p266
F0.0
sS'frac_long_term_incentive'
p267
F0.08532066508771213
sg37
F0.1359389598255995
sS'frac_other'
p268
F0.0
ssS'LOWRY CHARLES P'
p269
(dp270
g3
g41
sg4
F0.09474166462243826
sg5
F0.015698010104923967
sS'frac_bonus'
p271
F0.0
sg7
F0.0
sg8
I00
sg9
F1.0
sg10
g41
sg12
F0.0
sS'frac_expenses'
p272
F0.0
sS'frac_deferral_payments'
p273
F0.5
sS'frac_exercised_stock_options'
p274
F1.0
sg16
g46
(g50
S'\xabW\x82\x9a\xb3 \xc1?'
p275
tp276
Rp277
sg17
F0.0
sg18
g41
sg19
F0.0
sg20
F0.0
sS'frac_loan_advances'
p278
F0.0
sS'frac_deferred_income'
p279
F1.0
sS'frac_restricted_stock_deferred'
p280
F0.6666666666666666
sg24
F0.0
sg25
F0.0
sg26
I372205
sg27
g46
(g50
S'\xf8\xe0\x83\x0f>\xf8\xb0?'
p281
tp282
Rp283
sg28
g46
(g50
S'\t*\x1c\xdd2\xe7\x8a?'
p284
tp285
Rp286
sg29
F0.15882452932665
sg30
F0.0
sg31
F0.0
sg32
F0.0
sg33
F0.010836172088911083
sS'frac_salary'
p287
F0.0
sS'frac_restricted_stock'
p288
F0.0
sS'frac_long_term_incentive'
p289
F0.0
sg37
F0.0
sS'frac_other'
p290
F0.0
ssS'COLWELL WESLEY'
p291
(dp292
g3
I1758
sg4
F0.1036542684938879
sg5
F0.019926517997577147
sS'frac_bonus'
p293
F0.1549612706864992
sg7
F0.0721882472252943
sg8
I01
sg9
F0.9588909440912046
sg10
S'wes.colwell@enron.com'
p294
sg12
F0.0
sS'frac_expenses'
p295
F0.011080663256268351
sS'frac_deferral_payments'
p296
F0.5092629621080771
sS'frac_exercised_stock_options'
p297
F0.5
sg16
I0
sg17
F0.0
sg18
I40
sg19
F0.009820720213820265
sg20
F0.0
sS'frac_loan_advances'
p298
F0.0
sS'frac_deferred_income'
p299
F0.9998621088078704
sS'frac_restricted_stock_deferred'
p300
F1.0
sg24
F0.6281315808583254
sg25
F0.15
sg26
I698242
sg27
I0
sg28
I0
sg29
F0.1901817923845561
sg30
F0.2596534738107622
sg31
I1490344
sg32
F0.275
sg33
F0.0
sS'frac_salary'
p301
F0.20423818368057856
sS'frac_restricted_stock'
p302
F0.3333333333333333
sS'frac_long_term_incentive'
p303
F0.0
sg37
F0.643176794932873
sS'frac_other'
p304
F0.06826611842634989
ssS'MULLER MARK S'
p305
(dp306
g3
I136
sg4
F0.1036542684938879
sg5
F0.1447929317603672
sS'frac_bonus'
p307
F0.06611352448051833
sg7
F0.0
sg8
I00
sg9
F0.7948285377238694
sg10
S's..muller@enron.com'
p308
sg12
F0.3353546075996699
sS'frac_expenses'
p309
F0.0
sS'frac_deferral_payments'
p310
F0.6316217321919884
sS'frac_exercised_stock_options'
p311
F0.5
sg16
I0
sg17
F0.0
sg18
I16
sg19
F9.141165758293484e-05
sg20
F0.0
sS'frac_loan_advances'
p312
F0.0
sS'frac_deferred_income'
p313
F0.9996796891288057
sS'frac_restricted_stock_deferred'
p314
F1.0
sg24
F0.4059762202753442
sg25
F0.1375
sg26
I1416848
sg27
I0
sg28
I0
sg29
F0.17073514826285383
sg30
F0.2264586621648618
sg31
I3202070
sg32
F0.0
sg33
F0.030753120729056716
sS'frac_salary'
p315
F0.08290628240472508
sS'frac_restricted_stock'
p316
F0.0
sS'frac_long_term_incentive'
p317
F0.09620600905543061
sg37
F0.8372762148337596
sS'frac_other'
p318
F0.0002957461891838717
ssS'JACKSON CHARLENE R'
p319
(dp320
g3
I258
sg4
F0.1036542684938879
sg5
F0.015698010104923967
sS'frac_bonus'
p321
F0.0872930629287061
sg7
F0.044504574603410514
sg8
I00
sg9
F1.0
sg10
S'charlene.jackson@enron.com'
p322
sg12
F0.0
sS'frac_expenses'
p323
F0.01847148087536785
sS'frac_deferral_payments'
p324
F0.5
sS'frac_exercised_stock_options'
p325
F0.5
sg16
I0
sg17
F0.0
sg18
I56
sg19
F0.00023504475841018622
sg20
F0.0
sS'frac_loan_advances'
p326
F0.0
sS'frac_deferred_income'
p327
F1.0
sS'frac_restricted_stock_deferred'
p328
F1.0
sg24
F0.4458395183902359
sg25
F0.03125
sg26
I725735
sg27
I0
sg28
I0
sg29
F0.18110841161190047
sg30
F0.25966787190733387
sg31
I551174
sg32
F0.3392857142857143
sg33
F0.005387822611974991
sS'frac_salary'
p329
F0.5522793711985852
sS'frac_restricted_stock'
p330
F0.0
sS'frac_long_term_incentive'
p331
F0.0
sg37
F0.45296950667872915
sS'frac_other'
p332
F0.00441784264134375
ssS'WESTFAHL RICHARD K'
p333
(dp334
g3
g41
sg4
F0.1036542684938879
sg5
F0.015698010104923967
sS'frac_bonus'
p335
F0.0
sg7
F0.22674121252125562
sg8
I00
sg9
F0.9969181477154628
sg10
S'dick.westfahl@enron.com'
p336
sg12
F0.04978996912602513
sS'frac_expenses'
p337
F0.06805880847881281
sS'frac_deferral_payments'
p338
F0.5
sS'frac_exercised_stock_options'
p339
F0.5
sg16
g46
(g50
S'\xabW\x82\x9a\xb3 \xc1?'
p340
tp341
Rp342
sg17
F0.0
sg18
g41
sg19
F0.038720124821797944
sg20
F0.0
sS'frac_loan_advances'
p343
F0.0
sS'frac_deferred_income'
p344
F0.9999797853857122
sS'frac_restricted_stock_deferred'
p345
F1.0
sg24
F0.0
sg25
F0.0
sg26
I384930
sg27
g46
(g50
S'\xf8\xe0\x83\x0f>\xf8\xb0?'
p346
tp347
Rp348
sg28
g46
(g50
S'\t*\x1c\xdd2\xe7\x8a?'
p349
tp350
Rp351
sg29
F0.1721402928818444
sg30
F0.05736201674138679
sg31
I762135
sg32
F0.0
sg33
F0.0
sS'frac_salary'
p352
F0.08823112794330612
sS'frac_restricted_stock'
p353
F0.3333333333333333
sS'frac_long_term_incentive'
p354
F0.06001208194282817
sg37
F0.0
sS'frac_other'
p355
F0.5263240764431498
ssS'WALTERS GARETH W'
p356
(dp357
g3
g41
sg4
F0.1036542684938879
sg5
F0.023910749537865896
sS'frac_bonus'
p358
F0.0
sg7
F0.14768559600984424
sg8
I00
sg9
F1.0
sg10
g41
sg12
F0.0
sS'frac_expenses'
p359
F0.3865118407504862
sS'frac_deferral_payments'
p360
F0.8067440796247569
sS'frac_exercised_stock_options'
p361
F1.0
sg16
g46
(g50
S'\xabW\x82\x9a\xb3 \xc1?'
p362
tp363
Rp364
sg17
F0.0
sg18
g41
sg19
F0.0
sg20
F0.0
sS'frac_loan_advances'
p365
F0.0
sS'frac_deferred_income'
p366
F1.0
sS'frac_restricted_stock_deferred'
p367
F1.0
sg24
F0.0
sg25
F0.0
sg26
I1030329
sg27
g46
(g50
S'\xf8\xe0\x83\x0f>\xf8\xb0?'
p368
tp369
Rp370
sg28
g46
(g50
S'\t*\x1c\xdd2\xe7\x8a?'
p371
tp372
Rp373
sg29
F0.1499748016029313
sg30
F0.0
sg31
I87410
sg32
F0.0
sg33
F0.02999643301996391
sS'frac_salary'
p374
F0.0
sS'frac_restricted_stock'
p375
F0.0
sS'frac_long_term_incentive'
p376
F0.0
sg37
F0.0
sS'frac_other'
p377
F0.0
ssS'WALLS JR ROBERT H'
p378
(dp379
g3
I671
sg4
F0.1036542684938879
sg5
F0.015698010104923967
sS'frac_bonus'
p380
F0.0909430095212681
sg7
F0.22265838444153993
sg8
I00
sg9
F1.0
sg10
S'rob.walls@enron.com'
p381
sg12
F0.10509337016080665
sS'frac_expenses'
p382
F0.028316970391042817
sS'frac_deferral_payments'
p383
F0.5
sS'frac_exercised_stock_options'
p384
F0.5
sg16
I0
sg17
F0.0
sg18
I146
sg19
F1.9305524304738086e-07
sg20
F0.0
sS'frac_loan_advances'
p385
F0.0
sS'frac_deferred_income'
p386
F1.0
sS'frac_restricted_stock_deferred'
p387
F1.0
sg24
F0.11656942638805212
sg25
F0.10625
sg26
I5898997
sg27
I0
sg28
I0
sg29
F0.23936997327680049
sg30
F0.3213394189288176
sg31
I1798780
sg32
F0.0
sg33
F0.1265428964576616
sS'frac_salary'
p388
F0.20941861338274462
sS'frac_restricted_stock'
p389
F0.0
sS'frac_long_term_incentive'
p390
F0.05366931005449735
sg37
F0.3200506774614889
sS'frac_other'
p391
F1.1118647083022938e-06
ssS'KITCHEN LOUISE'
p392
(dp393
g3
I8305
sg4
F0.1036542684938879
sg5
F0.015698010104923967
sS'frac_bonus'
p394
F0.1718770475375868
sg7
F0.02524009564483767
sg8
I00
sg9
F1.0
sg10
S'louise.kitchen@enron.com'
p395
sg12
F0.0
sS'frac_expenses'
p396
F0.0016634299787879547
sS'frac_deferral_payments'
p397
F0.5
sS'frac_exercised_stock_options'
p398
F0.5
sg16
I0
sg17
F0.0
sg18
I1728
sg19
F0.009066356851612624
sg20
F0.0
sS'frac_loan_advances'
p399
F0.0
sS'frac_deferred_income'
p400
F1.0
sS'frac_restricted_stock_deferred'
p401
F1.0
sg24
F0.1390568357948941
sg25
F0.3875
sg26
I547143
sg27
I0
sg28
I0
sg29
F0.17681437672202482
sg30
F0.2442655080998292
sg31
I3471141
sg32
F0.11226851851851852
sg33
F0.002359412308887661
sS'frac_salary'
p402
F0.08249340245394272
sS'frac_restricted_stock'
p403
F0.0
sS'frac_long_term_incentive'
p404
F0.0
sg37
F0.4412765875372146
sS'frac_other'
p405
F0.02705882590191525
ssS'CHAN RONNIE'
p406
(dp407
g3
g41
sg4
F0.10177183859352447
sg5
F0.015698010104923967
sS'frac_bonus'
p408
F0.0
sg7
F0.0
sg8
I00
sg9
F0.9718113244374336
sg10
g41
sg12
F0.0
sS'frac_expenses'
p409
F0.0
sS'frac_deferral_payments'
p410
F0.5
sS'frac_exercised_stock_options'
p411
F0.5
sg16
g46
(g50
S'\xabW\x82\x9a\xb3 \xc1?'
p412
tp413
Rp414
sg17
F0.0
sg18
g41
sg19
F0.0
sg20
F0.7165322346660477
sS'frac_loan_advances'
p415
F0.0
sS'frac_deferred_income'
p416
F1.0
sS'frac_restricted_stock_deferred'
p417
F1.0
sg24
F0.0
sg25
F0.0
sg26
F0.0
sg27
g46
(g50
S'\xf8\xe0\x83\x0f>\xf8\xb0?'
p418
tp419
Rp420
sg28
g46
(g50
S'\t*\x1c\xdd2\xe7\x8a?'
p421
tp422
Rp423
sg29
F0.15184395144033946
sg30
F0.0
sg31
F-98784.0
sg32
F0.0
sg33
F0.0
sS'frac_salary'
p424
F0.0
sS'frac_restricted_stock'
p425
F0.0
sS'frac_long_term_incentive'
p426
F0.0
sg37
F0.0
sS'frac_other'
p427
F0.0
ssS'BELFER ROBERT'
p428
(dp429
g3
g41
sg4
F0.10621132276365762
sg5
F0.0
sS'frac_bonus'
p430
F0.0
sg7
F0.0
sg8
I00
sg9
F1.0
sg10
g41
sg12
F0.0
sS'frac_expenses'
p431
F0.0
sS'frac_deferral_payments'
p432
F0.0
sS'frac_exercised_stock_options'
p433
F0.0
sg16
g46
(g50
S'\xabW\x82\x9a\xb3 \xc1?'
p434
tp435
Rp436
sg17
F0.0
sg18
g41
sg19
F0.0
sg20
F0.023827830325538212
sS'frac_loan_advances'
p437
F0.0
sS'frac_deferred_income'
p438
F1.0
sS'frac_restricted_stock_deferred'
p439
F0.6666666666666666
sg24
F0.0
sg25
F0.0
sg26
I-44093
sg27
g46
(g50
S'\xf8\xe0\x83\x0f>\xf8\xb0?'
p440
tp441
Rp442
sg28
g46
(g50
S'\t*\x1c\xdd2\xe7\x8a?'
p443
tp444
Rp445
sg29
F0.1499748016029313
sg30
F0.0
sg31
I102500
sg32
F0.0
sg33
F9.56376870597464e-05
sS'frac_salary'
p446
F0.0
sS'frac_restricted_stock'
p447
F0.0
sS'frac_long_term_incentive'
p448
F0.0
sg37
F0.0
sS'frac_other'
p449
F0.0
ssS'SHANKMAN JEFFREY A'
p450
(dp451
g3
I3221
sg4
F0.1036542684938879
sg5
F0.015698010104923967
sS'frac_bonus'
p452
F0.12666899660885908
sg7
F0.782377394945861
sg8
I00
sg9
F1.0
sg10
S'jeffrey.shankman@enron.com'
p453
sg12
F0.10775028889691327
sS'frac_expenses'
p454
F0.05889981972565918
sS'frac_deferral_payments'
p455
F0.5
sS'frac_exercised_stock_options'
p456
F0.5
sg16
I0
sg17
F0.0
sg18
I2681
sg19
F0.00011496439723471531
sg20
F0.0
sS'frac_loan_advances'
p457
F0.0
sS'frac_deferred_income'
p458
F1.0
sS'frac_restricted_stock_deferred'
p459
F1.0
sg24
F0.13427506985408258
sg25
F0.25
sg26
I2072035
sg27
I0
sg28
I0
sg29
F0.1862600902996306
sg30
F0.2736628217749614
sg31
I3038702
sg32
F0.030958597538232
sg33
F0.041978627000327
sS'frac_salary'
p460
F0.10557400932783714
sS'frac_restricted_stock'
p461
F0.0
sS'frac_long_term_incentive'
p462
F0.0325730986544975
sg37
F0.5364857482041835
sS'frac_other'
p463
F0.0003919436654203012
ssS'WODRASKA JOHN'
p464
(dp465
g3
g41
sg4
F0.1036542684938879
sg5
F0.015698010104923967
sS'frac_bonus'
p466
F0.0
sg7
F0.0
sg8
I00
sg9
F1.0
sg10
S'john.wodraska@enron.com'
p467
sg12
F0.0
sS'frac_expenses'
p468
F0.0
sS'frac_deferral_payments'
p469
F0.5
sS'frac_exercised_stock_options'
p470
F0.5
sg16
g46
(g50
S'\xabW\x82\x9a\xb3 \xc1?'
p471
tp472
Rp473
sg17
F0.0
sg18
g41
sg19
F0.018299996071325805
sg20
F0.0
sS'frac_loan_advances'
p474
F0.0
sS'frac_deferred_income'
p475
F1.0
sS'frac_restricted_stock_deferred'
p476
F1.0
sg24
F0.0
sg25
F0.0
sg26
F0.0
sg27
g46
(g50
S'\xf8\xe0\x83\x0f>\xf8\xb0?'
p477
tp478
Rp479
sg28
g46
(g50
S'\t*\x1c\xdd2\xe7\x8a?'
p480
tp481
Rp482
sg29
F0.1499748016029313
sg30
F0.0
sg31
I189583
sg32
F0.0
sg33
F0.0
sS'frac_salary'
p483
F0.0
sS'frac_restricted_stock'
p484
F0.0
sS'frac_long_term_incentive'
p485
F0.0
sg37
F0.0
sS'frac_other'
p486
F1.0
ssS'BERGSIEKER RICHARD P'
p487
(dp488
g3
I383
sg4
F0.1036542684938879
sg5
F0.015698010104923967
sS'frac_bonus'
p489
F0.07774689612453205
sg7
F0.25867382400125893
sg8
I00
sg9
F0.8613700088974217
sg10
S'rick.bergsieker@enron.com'
p490
sg12
F0.03503105860458029
sS'frac_expenses'
p491
F0.09562090975195928
sS'frac_deferral_payments'
p492
F0.5
sS'frac_exercised_stock_options'
p493
F0.5
sg16
I0
sg17
F0.0
sg18
I59
sg19
F0.041247797119017306
sg20
F0.0
sS'frac_loan_advances'
p494
F0.0
sS'frac_deferred_income'
p495
F0.9988801564658893
sS'frac_restricted_stock_deferred'
p496
F1.0
sg24
F0.04805288595078051
sg25
F0.03125
sg26
I659249
sg27
I0
sg28
I0
sg29
F0.1879364516695205
sg30
F0.16910744399590374
sg31
I618850
sg32
F0.0
sg33
F0.0
sS'frac_salary'
p497
F0.3203366694610116
sS'frac_restricted_stock'
p498
F0.3333333333333333
sS'frac_long_term_incentive'
p499
F0.05199919367195488
sg37
F0.6076590329268512
sS'frac_other'
p500
F0.6905001211925346
ssS'URQUHART JOHN A'
p501
(dp502
g3
g41
sg4
F0.1036542684938879
sg5
F0.015698010104923967
sS'frac_bonus'
p503
F0.0
sg7
F0.9995322670187049
sg8
I00
sg9
F0.9895371114939964
sg10
g41
sg12
F0.0
sS'frac_expenses'
p504
F1.0
sS'frac_deferral_payments'
p505
F0.5
sS'frac_exercised_stock_options'
p506
F0.5
sg16
g46
(g50
S'\xabW\x82\x9a\xb3 \xc1?'
p507
tp508
Rp509
sg17
F0.0
sg18
g41
sg19
F0.0
sg20
F0.265957755469158
sS'frac_loan_advances'
p510
F0.0
sS'frac_deferred_income'
p511
F0.9997712534554986
sS'frac_restricted_stock_deferred'
p512
F1.0
sg24
F0.0
sg25
F0.0
sg26
F0.0
sg27
g46
(g50
S'\xf8\xe0\x83\x0f>\xf8\xb0?'
p513
tp514
Rp515
sg28
g46
(g50
S'\t*\x1c\xdd2\xe7\x8a?'
p516
tp517
Rp518
sg29
F0.1499748016029313
sg30
F0.0
sg31
I228656
sg32
F0.0
sg33
F0.0
sS'frac_salary'
p519
F0.0
sS'frac_restricted_stock'
p520
F0.0
sS'frac_long_term_incentive'
p521
F0.0
sg37
F0.0
sS'frac_other'
p522
F0.0
ssS'BIBI PHILIPPE A'
p523
(dp524
g3
I1607
sg4
F0.1036542684938879
sg5
F0.015698010104923967
sS'frac_bonus'
p525
F0.09399068402102696
sg7
F0.1685543553808964
sg8
I00
sg9
F1.0
sg10
S'philippe.bibi@enron.com'
p526
sg12
F0.07185419150260211
sS'frac_expenses'
p527
F0.018831379087543277
sS'frac_deferral_payments'
p528
F0.5
sS'frac_exercised_stock_options'
p529
F0.5
sg16
I0
sg17
F0.0
sg18
I40
sg19
F0.04109065015117674
sg20
F0.0
sS'frac_loan_advances'
p530
F0.0
sS'frac_deferred_income'
p531
F1.0
sS'frac_restricted_stock_deferred'
p532
F1.0
sg24
F0.06585218922533066
sg25
F0.125
sg26
I1843816
sg27
I0
sg28
I0
sg29
F0.17174596330431602
sg30
F0.1922370862571968
sg31
I2047593
sg32
F0.2
sg33
F0.04267257522217057
sS'frac_salary'
p533
F0.11005831637297066
sS'frac_restricted_stock'
p534
F0.0
sS'frac_long_term_incentive'
p535
F0.03223570806284383
sg37
F0.8304115717990086
sS'frac_other'
p536
F0.2078967841753708
ssS'RIEKER PAULA H'
p537
(dp538
g3
I1328
sg4
F0.1036542684938879
sg5
F0.04857622877131292
sS'frac_bonus'
p539
F0.12257143723652685
sg7
F0.1454387291651185
sg8
I01
sg9
F0.9714643306987301
sg10
S'paula.rieker@enron.com'
p540
sg12
F0.0
sS'frac_expenses'
p541
F0.03027113092530252
sS'frac_deferral_payments'
p542
F0.5976608133927759
sS'frac_exercised_stock_options'
p543
F0.5
sg16
I0
sg17
F0.0
sg18
I82
sg19
F0.00018822886197119635
sg20
F0.0
sS'frac_loan_advances'
p544
F0.0
sS'frac_deferred_income'
p545
F0.999870211443536
sS'frac_restricted_stock_deferred'
p546
F1.0
sg24
F0.12126297744168163
sg25
F0.0875
sg26
I1918887
sg27
I0
sg28
I0
sg29
F0.16630821140672009
sg30
F0.2242512539842233
sg31
I1099100
sg32
F0.5853658536585366
sg33
F0.04760742164755116
sS'frac_salary'
p547
F0.23918117671935557
sS'frac_restricted_stock'
p548
F0.0
sS'frac_long_term_incentive'
p549
F0.0
sg37
F0.946205301756224
sS'frac_other'
p550
F0.0017741788736238742
ssS'WHALEY DAVID A'
p551
(dp552
g3
g41
sg4
F0.1036542684938879
sg5
F0.015698010104923967
sS'frac_bonus'
p553
F0.0
sg7
F0.0
sg8
I00
sg9
F1.0
sg10
g41
sg12
F0.0
sS'frac_expenses'
p554
F0.0
sS'frac_deferral_payments'
p555
F0.5
sS'frac_exercised_stock_options'
p556
F1.0
sg16
g46
(g50
S'\xabW\x82\x9a\xb3 \xc1?'
p557
tp558
Rp559
sg17
F0.0
sg18
g41
sg19
F0.0
sg20
F0.0
sS'frac_loan_advances'
p560
F0.0
sS'frac_deferred_income'
p561
F1.0
sS'frac_restricted_stock_deferred'
p562
F1.0
sg24
F0.0
sg25
F0.0
sg26
I98718
sg27
g46
(g50
S'\xf8\xe0\x83\x0f>\xf8\xb0?'
p563
tp564
Rp565
sg28
g46
(g50
S'\t*\x1c\xdd2\xe7\x8a?'
p566
tp567
Rp568
sg29
F0.1499748016029313
sg30
F0.0
sg31
F0.0
sg32
F0.0
sg33
F0.002874021671587228
sS'frac_salary'
p569
F0.0
sS'frac_restricted_stock'
p570
F0.0
sS'frac_long_term_incentive'
p571
F0.0
sg37
F0.0
sS'frac_other'
p572
F0.0
ssS'BECK SALLY W'
p573
(dp574
g3
I7315
sg4
F0.1036542684938879
sg5
F0.015698010104923967
sS'frac_bonus'
p575
F0.13901838329886723
sg7
F0.16249131196915584
sg8
I00
sg9
F1.0
sg10
S'sally.beck@enron.com'
p576
sg12
F0.0
sS'frac_expenses'
p577
F0.0383585052854908
sS'frac_deferral_payments'
p578
F0.5
sS'frac_exercised_stock_options'
p579
F0.5
sg16
I0
sg17
F0.0
sg18
I4343
sg19
F5.463463378240879e-05
sg20
F0.0
sS'frac_loan_advances'
p580
F0.0
sS'frac_deferred_income'
p581
F1.0
sS'frac_restricted_stock_deferred'
p582
F1.0
sg24
F0.09057459897325518
sg25
F0.0875
sg26
I126027
sg27
I0
sg28
I0
sg29
F0.15723183630900145
sg30
F0.2081694799947447
sg31
I969068
sg32
F0.08887865530739121
sg33
F0.0
sS'frac_salary'
p583
F0.25182110794394996
sS'frac_restricted_stock'
p584
F0.3333333333333333
sS'frac_long_term_incentive'
p585
F0.0
sg37
F0.3603527750101278
sS'frac_other'
p586
F0.0005840663400298018
ssS'HAUG DAVID L'
p587
(dp588
g3
I573
sg4
F0.1036542684938879
sg5
F0.015698010104923967
sS'frac_bonus'
p589
F0.0
sg7
F0.0020763847300481284
sg8
I00
sg9
F1.0
sg10
S'david.haug@enron.com'
p590
sg12
F0.0
sS'frac_expenses'
p591
F1.0
sS'frac_deferral_payments'
p592
F0.5
sS'frac_exercised_stock_options'
p593
F0.5
sg16
I0
sg17
F0.0
sg18
I19
sg19
F0.0
sg20
F0.0
sS'frac_loan_advances'
p594
F0.0
sS'frac_deferred_income'
p595
F1.0
sS'frac_restricted_stock_deferred'
p596
F1.0
sg24
F0.032119119230626415
sg25
F0.0
sg26
I2217299
sg27
I0
sg28
I0
sg29
F0.277653916369883
sg30
F0.0
sg31
I475
sg32
F0.3684210526315789
sg33
F0.0
sS'frac_salary'
p597
F0.0
sS'frac_restricted_stock'
p598
F0.3333333333333333
sS'frac_long_term_incentive'
p599
F0.0
sg37
F0.8210490373441001
sS'frac_other'
p600
F0.0
ssS'ECHOLS JOHN B'
p601
(dp602
g3
g41
sg4
F0.1036542684938879
sg5
F0.015698010104923967
sS'frac_bonus'
p603
F0.014296545784732197
sg7
F0.09411486997460254
sg8
I00
sg9
F1.0
sg10
S'john.echols@enron.com'
p604
sg12
F0.43432176955335544
sS'frac_expenses'
p605
F0.007996808705044415
sS'frac_deferral_payments'
p606
F0.5
sS'frac_exercised_stock_options'
p607
F0.5
sg16
g46
(g50
S'\xabW\x82\x9a\xb3 \xc1?'
p608
tp609
Rp610
sg17
F0.0
sg18
g41
sg19
F0.005190772847436453
sg20
F0.0
sS'frac_loan_advances'
p611
F0.0
sS'frac_deferred_income'
p612
F1.0
sS'frac_restricted_stock_deferred'
p613
F1.0
sg24
F0.0
sg25
F0.025
sg26
I1008941
sg27
g46
(g50
S'\xf8\xe0\x83\x0f>\xf8\xb0?'
p614
tp615
Rp616
sg28
g46
(g50
S'\t*\x1c\xdd2\xe7\x8a?'
p617
tp618
Rp619
sg29
F0.17344011787506108
sg30
F0.16399881935608113
sg31
I2692324
sg32
F0.0
sg33
F0.017509935838611795
sS'frac_salary'
p620
F0.07140731850761246
sS'frac_restricted_stock'
p621
F0.0
sS'frac_long_term_incentive'
p622
F0.14818799381789508
sg37
F0.0
sS'frac_other'
p623
F0.019973450446528724
ssS'MENDELSOHN JOHN'
p624
(dp625
g3
g41
sg4
F0.1036542684938879
sg5
F0.015698010104923967
sS'frac_bonus'
p626
F0.0
sg7
F0.0006469577685202589
sg8
I00
sg9
F0.9703942430999325
sg10
g41
sg12
F0.0
sS'frac_expenses'
p627
F1.0
sS'frac_deferral_payments'
p628
F0.5
sS'frac_exercised_stock_options'
p629
F0.5
sg16
g46
(g50
S'\xabW\x82\x9a\xb3 \xc1?'
p630
tp631
Rp632
sg17
F0.0
sg18
g41
sg19
F0.0
sg20
F0.7525532408750653
sS'frac_loan_advances'
p633
F0.0
sS'frac_deferred_income'
p634
F0.0
sS'frac_restricted_stock_deferred'
p635
F1.0
sg24
F0.0
sg25
F0.0
sg26
F0.0
sg27
g46
(g50
S'\xf8\xe0\x83\x0f>\xf8\xb0?'
p636
tp637
Rp638
sg28
g46
(g50
S'\t*\x1c\xdd2\xe7\x8a?'
p639
tp640
Rp641
sg29
F0.1499748016029313
sg30
F0.0
sg31
I148
sg32
F0.0
sg33
F0.0
sS'frac_salary'
p642
F0.0
sS'frac_restricted_stock'
p643
F0.0
sS'frac_long_term_incentive'
p644
F0.0
sg37
F0.0
sS'frac_other'
p645
F0.0
ssS'HICKERSON GARY J'
p646
(dp647
g3
I1320
sg4
F0.1036542684938879
sg5
F0.015698010104923967
sS'frac_bonus'
p648
F0.15715897875360185
sg7
F0.4321022193274262
sg8
I00
sg9
F1.0
sg10
S'gary.hickerson@enron.com'
p649
sg12
F0.013453286933619205
sS'frac_expenses'
p650
F0.04748255832944246
sS'frac_deferral_payments'
p651
F0.5
sS'frac_exercised_stock_options'
p652
F0.5
sg16
I0
sg17
F0.0
sg18
I27
sg19
F0.00018687747526986468
sg20
F0.0
sS'frac_loan_advances'
p653
F0.0
sS'frac_deferred_income'
p654
F1.0
sS'frac_restricted_stock_deferred'
p655
F1.0
sg24
F0.13942617666021923
sg25
F0.2125
sg26
I441096
sg27
I0
sg28
I0
sg29
F0.17537450944893823
sg30
F0.19058400479456616
sg31
I2081796
sg32
F0.037037037037037035
sg33
F0.0
sS'frac_salary'
p656
F0.1073192440169051
sS'frac_restricted_stock'
p657
F0.3333333333333333
sS'frac_long_term_incentive'
p658
F0.005936342889802769
sg37
F0.6810380694820054
sS'frac_other'
p659
F0.0009299662406883287
ssS'CLINE KENNETH W'
p660
(dp661
g3
g41
sg4
F0.07624896556243538
sg5
F0.015698010104923967
sS'frac_bonus'
p662
F0.0
sg7
F0.0
sg8
I00
sg9
F1.0
sg10
g41
sg12
F0.0
sS'frac_expenses'
p663
F0.0
sS'frac_deferral_payments'
p664
F0.5
sS'frac_exercised_stock_options'
p665
F0.5
sg16
g46
(g50
S'\xabW\x82\x9a\xb3 \xc1?'
p666
tp667
Rp668
sg17
F0.0
sg18
g41
sg19
F0.0
sg20
F0.0
sS'frac_loan_advances'
p669
F0.0
sS'frac_deferred_income'
p670
F1.0
sS'frac_restricted_stock_deferred'
p671
F0.0
sg24
F0.0
sg25
F0.0
sg26
I189518
sg27
g46
(g50
S'\xf8\xe0\x83\x0f>\xf8\xb0?'
p672
tp673
Rp674
sg28
g46
(g50
S'\t*\x1c\xdd2\xe7\x8a?'
p675
tp676
Rp677
sg29
F0.18809981513497726
sg30
F0.0
sg31
F0.0
sg32
F0.0
sg33
F0.0
sS'frac_salary'
p678
F0.0
sS'frac_restricted_stock'
p679
F1.0
sS'frac_long_term_incentive'
p680
F0.0
sg37
F0.0
sS'frac_other'
p681
F0.0
ssS'LEWIS RICHARD'
p682
(dp683
g3
I952
sg4
F0.1036542684938879
sg5
F0.015698010104923967
sS'frac_bonus'
p684
F0.0
sg7
F0.0
sg8
I00
sg9
F1.0
sg10
S'richard.lewis@enron.com'
p685
sg12
F0.0
sS'frac_expenses'
p686
F0.0
sS'frac_deferral_payments'
p687
F0.5
sS'frac_exercised_stock_options'
p688
F1.0
sg16
I0
sg17
F0.0
sg18
I26
sg19
F0.0
sg20
F0.0
sS'frac_loan_advances'
p689
F0.0
sS'frac_deferred_income'
p690
F1.0
sS'frac_restricted_stock_deferred'
p691
F1.0
sg24
F0.048330502413731456
sg25
F0.0
sg26
I850477
sg27
I0
sg28
I0
sg29
F0.1499748016029313
sg30
F0.0
sg31
F0.0
sg32
F0.0
sg33
F0.024760320601982324
sS'frac_salary'
p692
F0.0
sS'frac_restricted_stock'
p693
F0.0
sS'frac_long_term_incentive'
p694
F0.0
sg37
F0.7753723342884065
sS'frac_other'
p695
F0.0
ssS'HAYES ROBERT E'
p696
(dp697
g3
I504
sg4
F0.1036542684938879
sg5
F0.016917247748292747
sS'frac_bonus'
p698
F0.0
sg7
F0.0
sg8
I00
sg9
F1.0
sg10
S'robert.hayes@enron.com'
p699
sg12
F0.0
sS'frac_expenses'
p700
F0.0
sS'frac_deferral_payments'
p701
F1.0
sS'frac_exercised_stock_options'
p702
F0.5
sg16
I0
sg17
F0.0
sg18
I12
sg19
F0.0
sg20
F0.0
sS'frac_loan_advances'
p703
F0.0
sS'frac_deferred_income'
p704
F1.0
sS'frac_restricted_stock_deferred'
p705
F1.0
sg24
F0.14606551840594392
sg25
F0.0
sg26
I151418
sg27
I0
sg28
I0
sg29
F0.15869393068736345
sg30
F0.0
sg31
I7961
sg32
F0.0
sg33
F0.0
sS'frac_salary'
p706
F0.0
sS'frac_restricted_stock'
p707
F0.3333333333333333
sS'frac_long_term_incentive'
p708
F0.0
sg37
F0.09909284079764628
sS'frac_other'
p709
F0.0
ssS'MCCARTY DANNY J'
p710
(dp711
g3
I1433
sg4
F0.1036542684938879
sg5
F0.015698010104923967
sS'frac_bonus'
p712
F0.0
sg7
F0.0
sg8
I00
sg9
F1.0
sg10
S'danny.mccarty@enron.com'
p713
sg12
F0.0
sS'frac_expenses'
p714
F0.0
sS'frac_deferral_payments'
p715
F0.5
sS'frac_exercised_stock_options'
p716
F0.5
sg16
I0
sg17
F0.0
sg18
I215
sg19
F0.0
sg20
F0.0
sS'frac_loan_advances'
p717
F0.0
sS'frac_deferred_income'
p718
F1.0
sS'frac_restricted_stock_deferred'
p719
F1.0
sg24
F0.08026978070110317
sg25
F0.0
sg26
I758931
sg27
I0
sg28
I0
sg29
F0.15541963623096472
sg30
F0.0
sg31
F0.0
sg32
F0.009302325581395349
sg33
F0.019342249114252363
sS'frac_salary'
p720
F0.0
sS'frac_restricted_stock'
p721
F0.0
sS'frac_long_term_incentive'
p722
F0.0
sg37
F0.3540954391500764
sS'frac_other'
p723
F0.0
ssS'KOPPER MICHAEL J'
p724
(dp725
g3
g41
sg4
F0.1036542684938879
sg5
F0.015698010104923967
sS'frac_bonus'
p726
F0.05804231200542458
sg7
F0.5164034393673802
sg8
I01
sg9
F1.0
sg10
S'michael.kopper@enron.com'
p727
sg12
F0.11712734047312627
sS'frac_expenses'
p728
F0.04453497156764728
sS'frac_deferral_payments'
p729
F0.5
sS'frac_exercised_stock_options'
p730
F0.5
sg16
g46
(g50
S'\xabW\x82\x9a\xb3 \xc1?'
p731
tp732
Rp733
sg17
F0.0
sg18
g41
sg19
F0.08759900958799212
sg20
F0.0
sS'frac_loan_advances'
p734
F0.0
sS'frac_deferred_income'
p735
F1.0
sS'frac_restricted_stock_deferred'
p736
F1.0
sg24
F0.0
sg25
F0.1
sg26
I985032
sg27
g46
(g50
S'\xf8\xe0\x83\x0f>\xf8\xb0?'
p737
tp738
Rp739
sg28
g46
(g50
S'\t*\x1c\xdd2\xe7\x8a?'
p740
tp741
Rp742
sg29
F0.2066960709387854
sg30
F0.20184781571876198
sg31
I2652612
sg32
F0.0
sg33
F0.0
sS'frac_salary'
p743
F0.08920303891877951
sS'frac_restricted_stock'
p744
F0.3333333333333333
sS'frac_long_term_incentive'
p745
F0.04056143350905765
sg37
F0.0
sS'frac_other'
p746
F0.34211637435101705
ssS'LEFF DANIEL P'
p747
(dp748
g3
I2822
sg4
F0.1036542684938879
sg5
F0.015698010104923967
sS'frac_bonus'
p749
F0.07223656033442583
sg7
F0.0
sg8
I00
sg9
F1.0
sg10
S'dan.leff@enron.com'
p750
sg12
F0.2696369246986746
sS'frac_expenses'
p751
F0.0
sS'frac_deferral_payments'
p752
F0.5
sS'frac_exercised_stock_options'
p753
F0.5
sg16
I0
sg17
F0.0
sg18
I63
sg19
F0.0002975946571575376
sg20
F0.0
sS'frac_loan_advances'
p754
F0.0
sS'frac_deferred_income'
p755
F1.0
sS'frac_restricted_stock_deferred'
p756
F1.0
sg24
F0.10923858135922916
sg25
F0.125
sg26
I360528
sg27
I0
sg28
I0
sg29
F0.17073514826285383
sg30
F0.2463388340061444
sg31
I2664228
sg32
F0.2222222222222222
sg33
F0.0
sS'frac_salary'
p757
F0.10839040000365512
sS'frac_restricted_stock'
p758
F0.3333333333333333
sS'frac_long_term_incentive'
p759
F0.09296869183767648
sg37
F0.9457628602983749
sS'frac_other'
p760
F0.001157183244076708
ssS'LAVORATO JOHN J'
p761
(dp762
g3
I7259
sg4
F0.1036542684938879
sg5
F0.015698010104923967
sS'frac_bonus'
p763
F0.14767631101831102
sg7
F0.21654288499451396
sg8
I00
sg9
F1.0
sg10
S'john.lavorato@enron.com'
p764
sg12
F0.39557013072172337
sS'frac_expenses'
p765
F0.004751405581388478
sS'frac_deferral_payments'
p766
F0.5
sS'frac_exercised_stock_options'
p767
F0.5
sg16
I0
sg17
F0.0
sg18
I2585
sg19
F0.00014981086860476757
sg20
F0.0
sS'frac_loan_advances'
p768
F0.0
sS'frac_deferred_income'
p769
F1.0
sS'frac_restricted_stock_deferred'
p770
F1.0
sg24
F0.33466892163213385
sg25
F1.0
sg26
I5167144
sg27
I1
sg28
I0
sg29
F0.2080272211788151
sg30
F0.30531883684976846
sg31
I10425757
sg32
F0.15899419729206962
sg33
F0.12108269780610348
sS'frac_salary'
p771
F0.034330120412252155
sS'frac_restricted_stock'
p772
F0.0
sS'frac_long_term_incentive'
p773
F0.034853358672318466
sg37
F0.5451807162449329
sS'frac_other'
p774
F0.00014886209222025797
ssS'BERBERIAN DAVID'
p775
(dp776
g3
g41
sg4
F0.1036542684938879
sg5
F0.015698010104923967
sS'frac_bonus'
p777
F0.0
sg7
F0.05198393096785756
sg8
I00
sg9
F1.0
sg10
S'david.berberian@enron.com'
p778
sg12
F0.0
sS'frac_expenses'
p779
F0.052049686178733685
sS'frac_deferral_payments'
p780
F0.5
sS'frac_exercised_stock_options'
p781
F0.5
sg16
g46
(g50
S'\xabW\x82\x9a\xb3 \xc1?'
p782
tp783
Rp784
sg17
F0.0
sg18
g41
sg19
F0.0
sg20
F0.0
sS'frac_loan_advances'
p785
F0.0
sS'frac_deferred_income'
p786
F1.0
sS'frac_restricted_stock_deferred'
p787
F1.0
sg24
F0.0
sg25
F0.0
sg26
I2493616
sg27
g46
(g50
S'\xf8\xe0\x83\x0f>\xf8\xb0?'
p788
tp789
Rp790
sg28
g46
(g50
S'\t*\x1c\xdd2\xe7\x8a?'
p791
tp792
Rp793
sg29
F0.20002724835807337
sg30
F0.19489803447984178
sg31
I228474
sg32
F0.0
sg33
F0.04729177361007726
sS'frac_salary'
p794
F1.0
sS'frac_restricted_stock'
p795
F0.0
sS'frac_long_term_incentive'
p796
F0.0
sg37
F0.0
sS'frac_other'
p797
F0.0
ssS'DETMERING TIMOTHY J'
p798
(dp799
g3
g41
sg4
F0.08538275204756296
sg5
F0.1497524308942965
sS'frac_bonus'
p800
F0.06790169986902797
sg7
F0.22842417698666306
sg8
I00
sg9
F0.7787797919521423
sg10
S'timothy.detmering@enron.com'
p801
sg12
F0.08078171831569504
sS'frac_expenses'
p802
F0.0433801572826447
sS'frac_deferral_payments'
p803
F0.8633236564022571
sS'frac_exercised_stock_options'
p804
F1.0
sg16
g46
(g50
S'\xabW\x82\x9a\xb3 \xc1?'
p805
tp806
Rp807
sg17
F0.0
sg18
g41
sg19
F0.00010666302178367793
sg20
F0.0
sS'frac_loan_advances'
p808
F0.0
sS'frac_deferred_income'
p809
F0.9990819346141971
sS'frac_restricted_stock_deferred'
p810
F0.6666666666666666
sg24
F0.0
sg25
F0.053125
sg26
I2027865
sg27
g46
(g50
S'\xf8\xe0\x83\x0f>\xf8\xb0?'
p811
tp812
Rp813
sg28
g46
(g50
S'\t*\x1c\xdd2\xe7\x8a?'
p814
tp815
Rp816
sg29
F0.1681174171596938
sg30
F0.18942495802054968
sg31
I1204583
sg32
F0.0
sg33
F0.05903814863604646
sS'frac_salary'
p817
F0.1843443348575164
sS'frac_restricted_stock'
p818
F0.0
sS'frac_long_term_incentive'
p819
F0.06160345927100841
sg37
F0.0
sS'frac_other'
p820
F0.0009173298975662117
ssS'WAKEHAM JOHN'
p821
(dp822
g3
g41
sg4
F0.1036542684938879
sg5
F0.015698010104923967
sS'frac_bonus'
p823
F0.0
sg7
F0.4536266791395462
sg8
I00
sg9
F1.0
sg10
g41
sg12
F0.0
sS'frac_expenses'
p824
F0.4870348381525407
sS'frac_deferral_payments'
p825
F0.5
sS'frac_exercised_stock_options'
p826
F0.5
sg16
g46
(g50
S'\xabW\x82\x9a\xb3 \xc1?'
p827
tp828
Rp829
sg17
F0.0
sg18
g41
sg19
F0.0
sg20
F0.7927957987581965
sS'frac_loan_advances'
p830
F0.0
sS'frac_deferred_income'
p831
F1.0
sS'frac_restricted_stock_deferred'
p832
F1.0
sg24
F0.0
sg25
F0.0
sg26
F0.0
sg27
g46
(g50
S'\xf8\xe0\x83\x0f>\xf8\xb0?'
p833
tp834
Rp835
sg28
g46
(g50
S'\t*\x1c\xdd2\xe7\x8a?'
p836
tp837
Rp838
sg29
F0.1499748016029313
sg30
F0.0
sg31
I213071
sg32
F0.0
sg33
F0.0
sS'frac_salary'
p839
F0.0
sS'frac_restricted_stock'
p840
F0.0
sS'frac_long_term_incentive'
p841
F0.0
sg37
F0.0
sS'frac_other'
p842
F0.0
ssS'POWERS WILLIAM'
p843
(dp844
g3
I653
sg4
F0.1036542684938879
sg5
F0.015698010104923967
sS'frac_bonus'
p845
F0.0
sg7
F0.0
sg8
I00
sg9
F0.9950062578722778
sg10
S'ken.powers@enron.com'
p846
sg12
F0.0
sS'frac_expenses'
p847
F0.0
sS'frac_deferral_payments'
p848
F0.5
sS'frac_exercised_stock_options'
p849
F0.5
sg16
I0
sg17
F0.0
sg18
I26
sg19
F0.0
sg20
F0.1269366912319387
sS'frac_loan_advances'
p850
F0.0
sS'frac_deferred_income'
p851
F1.0
sS'frac_restricted_stock_deferred'
p852
F1.0
sg24
F0.0
sg25
F0.0
sg26
F0.0
sg27
I0
sg28
I0
sg29
F0.1499748016029313
sg30
F0.0
sg31
F-17500.0
sg32
F0.0
sg33
F0.0
sS'frac_salary'
p853
F0.0
sS'frac_restricted_stock'
p854
F0.0
sS'frac_long_term_incentive'
p855
F0.0
sg37
F0.018355696819116838
sS'frac_other'
p856
F0.0
ssS'GOLD JOSEPH'
p857
(dp858
g3
g41
sg4
F0.1036542684938879
sg5
F0.015698010104923967
sS'frac_bonus'
p859
F0.06723000242667235
sg7
F0.0
sg8
I00
sg9
F1.0
sg10
S'joe.gold@enron.com'
p860
sg12
F0.05923795738124325
sS'frac_expenses'
p861
F0.0
sS'frac_deferral_payments'
p862
F0.5
sS'frac_exercised_stock_options'
p863
F0.5
sg16
g46
(g50
S'\xabW\x82\x9a\xb3 \xc1?'
p864
tp865
Rp866
sg17
F0.0
sg18
g41
sg19
F0.07908392198290129
sg20
F0.0
sS'frac_loan_advances'
p867
F0.0
sS'frac_deferred_income'
p868
F1.0
sS'frac_restricted_stock_deferred'
p869
F1.0
sg24
F0.0
sg25
F0.09375
sg26
I877611
sg27
g46
(g50
S'\xf8\xe0\x83\x0f>\xf8\xb0?'
p870
tp871
Rp872
sg28
g46
(g50
S'\t*\x1c\xdd2\xe7\x8a?'
p873
tp874
Rp875
sg29
F0.17537450944893823
sg30
F0.24555953702920474
sg31
I2146973
sg32
F0.0
sg33
F0.01270845813299397
sS'frac_salary'
p876
F0.134078625409185
sS'frac_restricted_stock'
p877
F0.0
sS'frac_long_term_incentive'
p878
F0.025345580072939345
sg37
F0.0
sS'frac_other'
p879
F0.38160144538380314
ssS'BANNANTINE JAMES M'
p880
(dp881
g3
I566
sg4
F0.07116570892391237
sg5
F0.015698010104923967
sS'frac_bonus'
p882
F0.0
sg7
F0.24611060355039932
sg8
I00
sg9
F0.9985435394388632
sg10
S'james.bannantine@enron.com'
p883
sg12
F0.0
sS'frac_expenses'
p884
F0.0614507578610277
sS'frac_deferral_payments'
p885
F0.5
sS'frac_exercised_stock_options'
p886
F0.5
sg16
I0
sg17
F0.0
sg18
I29
sg19
F0.08345034894252543
sg20
F0.0
sS'frac_loan_advances'
p887
F0.0
sS'frac_deferred_income'
p888
F0.9999920531427772
sS'frac_restricted_stock_deferred'
p889
F0.6666666666666666
sg24
F0.3170344335012405
sg25
F0.0
sg26
I5243487
sg27
I0
sg28
I0
sg29
F0.2511802247402193
sg30
F0.0004292432540418157
sg31
I916197
sg32
F0.0
sg33
F0.11779759420414072
sS'frac_salary'
p890
F0.0005492169587918126
sS'frac_restricted_stock'
p891
F0.0
sS'frac_long_term_incentive'
p892
F0.0
sg37
F0.820614776301639
sS'frac_other'
p893
F0.943599466053698
ssS'DUNCAN JOHN H'
p894
(dp895
g3
g41
sg4
F0.1036542684938879
sg5
F0.015698010104923967
sS'frac_bonus'
p896
F0.0
sg7
F0.0
sg8
I00
sg9
F0.9928660826746826
sg10
g41
sg12
F0.0
sS'frac_expenses'
p897
F0.0
sS'frac_deferral_payments'
p898
F0.5
sS'frac_exercised_stock_options'
p899
F1.0
sg16
g46
(g50
S'\xabW\x82\x9a\xb3 \xc1?'
p900
tp901
Rp902
sg17
F0.0
sg18
g41
sg19
F0.0
sg20
F0.7434283061567922
sS'frac_loan_advances'
p903
F0.0
sS'frac_deferred_income'
p904
F0.9995397892607958
sS'frac_restricted_stock_deferred'
p905
F1.0
sg24
F0.0
sg25
F0.0
sg26
I371750
sg27
g46
(g50
S'\xf8\xe0\x83\x0f>\xf8\xb0?'
p906
tp907
Rp908
sg28
g46
(g50
S'\t*\x1c\xdd2\xe7\x8a?'
p909
tp910
Rp911
sg29
F0.1499748016029313
sg30
F0.0
sg31
I77492
sg32
F0.0
sg33
F0.0108229254686334
sS'frac_salary'
p912
F0.0
sS'frac_restricted_stock'
p913
F0.0
sS'frac_long_term_incentive'
p914
F0.0
sg37
F0.0
sS'frac_other'
p915
F0.0
ssS'SHAPIRO RICHARD S'
p916
(dp917
g3
I15149
sg4
F0.1036542684938879
sg5
F0.015698010104923967
sS'frac_bonus'
p918
F0.11828827942876666
sg7
F0.6022258844306116
sg8
I00
sg9
F1.0
sg10
S'richard.shapiro@enron.com'
p919
sg12
F0.0
sS'frac_expenses'
p920
F0.1302702099573731
sS'frac_deferral_payments'
p921
F0.5
sS'frac_exercised_stock_options'
p922
F0.5
sg16
I0
sg17
F0.0
sg18
I1215
sg19
F6.805197317420176e-05
sg20
F0.0
sS'frac_loan_advances'
p923
F0.0
sS'frac_deferred_income'
p924
F1.0
sS'frac_restricted_stock_deferred'
p925
F1.0
sg24
F0.02247532664890457
sg25
F0.08125
sg26
I987001
sg27
I0
sg28
I0
sg29
F0.17180826829889628
sg30
F0.24213638956929895
sg31
I1057548
sg32
F0.053497942386831275
sg33
F0.017696232812582972
sS'frac_salary'
p926
F0.2684041954426667
sS'frac_restricted_stock'
p927
F0.0
sS'frac_long_term_incentive'
p928
F0.0
sg37
F0.2984896934538731
sS'frac_other'
p929
F0.0006666364079928287
ssS'SHERRIFF JOHN R'
p930
(dp931
g3
I3187
sg4
F0.1036542684938879
sg5
F0.015698010104923967
sS'frac_bonus'
p932
F0.06658735042861215
sg7
F0.0
sg8
I00
sg9
F1.0
sg10
S'john.sherriff@enron.com'
p933
sg12
F0.10775028889691327
sS'frac_expenses'
p934
F0.0
sS'frac_deferral_payments'
p935
F0.5
sS'frac_exercised_stock_options'
p936
F0.5
sg16
I0
sg17
F0.0
sg18
I92
sg19
F0.1787871091994781
sg20
F0.0
sS'frac_loan_advances'
p937
F0.0
sS'frac_deferred_income'
p938
F1.0
sS'frac_restricted_stock_deferred'
p939
F1.0
sg24
F0.040423529097597284
sg25
F0.1875
sg26
I3128982
sg27
I0
sg28
I0
sg29
F0.22445426122399717
sg30
F0.385850990499056
sg31
I4335388
sg32
F0.25
sg33
F0.05343942818387031
sS'frac_salary'
p940
F0.1043328267360471
sS'frac_restricted_stock'
p941
F0.0
sS'frac_long_term_incentive'
p942
F0.022830699357847293
sg37
F0.6591132166646682
sS'frac_other'
p943
F0.42722496809974103
ssS'SHELBY REX'
p944
(dp945
g3
I225
sg4
F0.1036542684938879
sg5
F0.015698010104923967
sS'frac_bonus'
p946
F0.01920815482591732
sg7
F0.10003365928930814
sg8
I01
sg9
F0.9988109186602161
sg10
S'rex.shelby@enron.com'
p947
sg12
F0.0
sS'frac_expenses'
p948
F0.011419817005466881
sS'frac_deferral_payments'
p949
F0.5
sS'frac_exercised_stock_options'
p950
F0.5
sg16
I0
sg17
F0.0
sg18
I39
sg19
F0.15186922360613872
sg20
F0.0
sS'frac_loan_advances'
p951
F0.0
sS'frac_deferred_income'
p952
F0.9999970336368592
sS'frac_restricted_stock_deferred'
p953
F1.0
sg24
F0.26583924349881793
sg25
F0.025
sg26
I2493616
sg27
I0
sg28
I0
sg29
F0.20002724835807337
sg30
F0.19063439813256688
sg31
I2003885
sg32
F0.358974358974359
sg33
F0.04729177361007726
sS'frac_salary'
p954
F0.11152129375866371
sS'frac_restricted_stock'
p955
F0.0
sS'frac_long_term_incentive'
p956
F0.0
sg37
F0.4039816933638444
sS'frac_other'
p957
F0.7851368716268649
ssS'LEMAISTRE CHARLES'
p958
(dp959
g3
g41
sg4
F0.1036542684938879
sg5
F0.015698010104923967
sS'frac_bonus'
p960
F0.0
sg7
F0.0
sg8
I00
sg9
F0.9928660826746826
sg10
g41
sg12
F0.0
sS'frac_expenses'
p961
F0.0
sS'frac_deferral_payments'
p962
F0.5
sS'frac_exercised_stock_options'
p963
F1.0
sg16
g46
(g50
S'\xabW\x82\x9a\xb3 \xc1?'
p964
tp965
Rp966
sg17
F0.0
sg18
g41
sg19
F0.0
sg20
F0.8159635582893286
sS'frac_loan_advances'
p967
F0.0
sS'frac_deferred_income'
p968
F0.99959238958302
sS'frac_restricted_stock_deferred'
p969
F1.0
sg24
F0.0
sg25
F0.0
sg26
I412878
sg27
g46
(g50
S'\xf8\xe0\x83\x0f>\xf8\xb0?'
p970
tp971
Rp972
sg28
g46
(g50
S'\t*\x1c\xdd2\xe7\x8a?'
p973
tp974
Rp975
sg29
F0.1499748016029313
sg30
F0.0
sg31
I87492
sg32
F0.0
sg33
F0.012020303487931193
sS'frac_salary'
p976
F0.0
sS'frac_restricted_stock'
p977
F0.0
sS'frac_long_term_incentive'
p978
F0.0
sg37
F0.0
sS'frac_other'
p979
F0.0
ssS'DEFFNER JOSEPH M'
p980
(dp981
g3
I714
sg4
F0.1036542684938879
sg5
F0.015698010104923967
sS'frac_bonus'
p982
F0.09553873788006277
sg7
F0.18196124373259662
sg8
I00
sg9
F1.0
sg10
S'joseph.deffner@enron.com'
p983
sg12
F0.06517409415804382
sS'frac_expenses'
p984
F0.034440106267410966
sS'frac_deferral_payments'
p985
F0.5
sS'frac_exercised_stock_options'
p986
F0.5
sg16
I0
sg17
F0.0
sg18
I74
sg19
F0.0024665703127948616
sg20
F0.0
sS'frac_loan_advances'
p987
F0.0
sS'frac_deferred_income'
p988
F1.0
sS'frac_restricted_stock_deferred'
p989
F1.0
sg24
F0.7410677036772156
sg25
F0.075
sg26
I159211
sg27
I0
sg28
I0
sg29
F0.15814199596180714
sg30
F0.1854843789651008
sg31
I1208649
sg32
F0.05405405405405406
sg33
F0.0005059335542539643
sS'frac_salary'
p990
F0.17990219781860547
sS'frac_restricted_stock'
p991
F0.0
sS'frac_long_term_incentive'
p992
F0.049534017099050615
sg37
F0.7722246793454224
sS'frac_other'
p993
F0.021141787235169185
ssS'KISHKILL JOSEPH G'
p994
(dp995
g3
g41
sg4
F0.1036542684938879
sg5
F0.015698010104923967
sS'frac_bonus'
p996
F0.0
sg7
F0.5085394054108401
sg8
I00
sg9
F0.9854348236752458
sg10
S'joe.kishkill@enron.com'
p997
sg12
F0.0
sS'frac_expenses'
p998
F0.16503853050662792
sS'frac_deferral_payments'
p999
F0.5
sS'frac_exercised_stock_options'
p1000
F0.5
sg16
g46
(g50
S'\xabW\x82\x9a\xb3 \xc1?'
p1001
tp1002
Rp1003
sg17
F0.0
sg18
g41
sg19
F0.04491980436940001
sg20
F0.0
sS'frac_loan_advances'
p1004
F0.0
sS'frac_deferred_income'
p1005
F0.9998967057261186
sS'frac_restricted_stock_deferred'
p1006
F1.0
sg24
F0.0
sg25
F0.0
sg26
I1034346
sg27
g46
(g50
S'\xf8\xe0\x83\x0f>\xf8\xb0?'
p1007
tp1008
Rp1009
sg28
g46
(g50
S'\t*\x1c\xdd2\xe7\x8a?'
p1010
tp1011
Rp1012
sg29
F0.20953572759565373
sg30
F0.15680067095130024
sg31
I704896
sg32
F0.0
sg33
F0.0
sS'frac_salary'
p1013
F0.2607667392365593
sS'frac_restricted_stock'
p1014
F0.3333333333333333
sS'frac_long_term_incentive'
p1015
F0.0
sg37
F0.0
sS'frac_other'
p1016
F0.660178239059379
ssS'WHALLEY LAWRENCE G'
p1017
(dp1018
g3
I6019
sg4
F0.1036542684938879
sg5
F0.015698010104923967
sS'frac_bonus'
p1019
F0.12343236045009656
sg7
F0.25282934740320767
sg8
I00
sg9
F1.0
sg10
S'greg.whalley@enron.com'
p1020
sg12
F0.1570996732248436
sS'frac_expenses'
p1021
F0.012364956706190004
sS'frac_deferral_payments'
p1022
F0.5
sS'frac_exercised_stock_options'
p1023
F0.5
sg16
I0
sg17
F0.0
sg18
I556
sg19
F0.02905732379679044
sg20
F0.0
sS'frac_loan_advances'
p1024
F0.0
sS'frac_deferred_income'
p1025
F1.0
sS'frac_restricted_stock_deferred'
p1026
F1.0
sg24
F0.14218273340096785
sg25
F0.375
sg26
I6079137
sg27
I0
sg28
I0
sg29
F0.31098754913572263
sg30
F0.45926688491781387
sg31
I4677574
sg32
F0.04316546762589928
sg33
F0.09557829561938053
sS'frac_salary'
p1027
F0.11509959382703808
sS'frac_restricted_stock'
p1028
F0.0
sS'frac_long_term_incentive'
p1029
F0.030852002503506087
sg37
F0.6505258139461499
sS'frac_other'
p1030
F0.06435515504404633
ssS'MCCONNELL MICHAEL S'
p1031
(dp1032
g3
I3329
sg4
F0.1036542684938879
sg5
F0.015698010104923967
sS'frac_bonus'
p1033
F0.10074415157646811
sg7
F0.3556694045802862
sg8
I00
sg9
F1.0
sg10
S'mike.mcconnell@enron.com'
p1034
sg12
F0.10775028889691327
sS'frac_expenses'
p1035
F0.038719612594486245
sS'frac_deferral_payments'
p1036
F0.5
sS'frac_exercised_stock_options'
p1037
F0.5
sg16
I0
sg17
F0.0
sg18
I2742
sg19
F5.2124915622792834e-05
sg20
F0.0
sS'frac_loan_advances'
p1038
F0.0
sS'frac_deferred_income'
p1039
F1.0
sS'frac_restricted_stock_deferred'
p1040
F1.0
sg24
F0.1271546627637205
sg25
F0.1375
sg26
I3101279
sg27
I0
sg28
I0
sg29
F0.23509822307537454
sg30
F0.3284907735197407
sg31
I2101364
sg32
F0.07075127644055434
sg33
F0.04725142236676986
sS'frac_salary'
p1041
F0.18325305095056652
sS'frac_restricted_stock'
p1042
F0.0
sS'frac_long_term_incentive'
p1043
F0.04710271044313068
sg37
F0.656802470213566
sS'frac_other'
p1044
F0.00025697594514800863
ssS'PIRO JIM'
p1045
(dp1046
g3
I58
sg4
F0.1036542684938879
sg5
F0.015698010104923967
sS'frac_bonus'
p1047
F0.0
sg7
F0.0
sg8
I00
sg9
F1.0
sg10
S'jim.piro@enron.com'
p1048
sg12
F0.0
sS'frac_expenses'
p1049
F0.0
sS'frac_deferral_payments'
p1050
F0.5
sS'frac_exercised_stock_options'
p1051
F0.5
sg16
I0
sg17
F0.0
sg18
I16
sg19
F0.0
sg20
F0.0
sS'frac_loan_advances'
p1052
F0.0
sS'frac_deferred_income'
p1053
F1.0
sS'frac_restricted_stock_deferred'
p1054
F1.0
sg24
F0.0
sg25
F0.0
sg26
I47304
sg27
I0
sg28
I0
sg29
F0.15269871607947952
sg30
F0.0
sg31
F0.0
sg32
F0.0625
sg33
F0.0
sS'frac_salary'
p1055
F0.0
sS'frac_restricted_stock'
p1056
F0.3333333333333333
sS'frac_long_term_incentive'
p1057
F0.0
sg37
F0.05166495699518662
sS'frac_other'
p1058
F0.0
ssS'DELAINEY DAVID W'
p1059
(dp1060
g3
I3093
sg4
F0.1036542684938879
sg5
F0.015698010104923967
sS'frac_bonus'
p1061
F0.12160205426350873
sg7
F0.3766955320571946
sg8
I01
sg9
F1.0
sg10
S'david.delainey@enron.com'
p1062
sg12
F0.2516757575745797
sS'frac_expenses'
p1063
F0.018149616921220586
sS'frac_deferral_payments'
p1064
F0.5
sS'frac_exercised_stock_options'
p1065
F0.5
sg16
I0
sg17
F0.0
sg18
I3069
sg19
F0.00016033237935084981
sg20
F0.0
sS'frac_loan_advances'
p1066
F0.0
sS'frac_deferred_income'
p1067
F1.0
sS'frac_restricted_stock_deferred'
p1068
F1.0
sg24
F0.0981798295395918
sg25
F0.375
sg26
I3614261
sg27
I0
sg28
I1
sg29
F0.22616586349655168
sg30
F0.3286032586492066
sg31
I4747979
sg32
F0.198435972629521
sg33
F0.06670220642694573
sS'frac_salary'
p1069
F0.08113204115033841
sS'frac_restricted_stock'
p1070
F0.0
sS'frac_long_term_incentive'
p1071
F0.04869241762493044
sg37
F0.677206817490739
sS'frac_other'
p1072
F0.0003498330552852066
ssS'SULLIVAN-SHAKLOVITZ COLLEEN'
p1073
(dp1074
g3
g41
sg4
F0.1036542684938879
sg5
F0.04357047793931838
sS'frac_bonus'
p1075
F0.019257868734131448
sg7
F0.0
sg8
I00
sg9
F1.0
sg10
g41
sg12
F0.10775028889691327
sS'frac_expenses'
p1076
F0.0
sS'frac_deferral_payments'
p1077
F0.5910551395098443
sS'frac_exercised_stock_options'
p1078
F1.0
sg16
g46
(g50
S'\xabW\x82\x9a\xb3 \xc1?'
p1079
tp1080
Rp1081
sg17
F0.0
sg18
g41
sg19
F1.563747468683785e-05
sg20
F0.0
sS'frac_loan_advances'
p1082
F0.0
sS'frac_deferred_income'
p1083
F1.0
sS'frac_restricted_stock_deferred'
p1084
F1.0
sg24
F0.0
sg25
F0.0125
sg26
I1362375
sg27
g46
(g50
S'\xf8\xe0\x83\x0f>\xf8\xb0?'
p1085
tp1086
Rp1087
sg28
g46
(g50
S'\t*\x1c\xdd2\xe7\x8a?'
p1088
tp1089
Rp1090
sg29
F0.1499748016029313
sg30
F0.14648173511461784
sg31
I999356
sg32
F0.0
sg33
F0.03966343802375099
sS'frac_salary'
p1091
F0.1718274627424485
sS'frac_restricted_stock'
p1092
F0.0
sS'frac_long_term_incentive'
p1093
F0.09904372418599465
sg37
F0.0
sS'frac_other'
p1094
F0.00016210439523052847
ssS'WROBEL BRUCE'
p1095
(dp1096
g3
g41
sg4
F0.1036542684938879
sg5
F0.015698010104923967
sS'frac_bonus'
p1097
F0.0
sg7
F0.0
sg8
I00
sg9
F1.0
sg10
g41
sg12
F0.0
sS'frac_expenses'
p1098
F0.0
sS'frac_deferral_payments'
p1099
F0.5
sS'frac_exercised_stock_options'
p1100
F1.0
sg16
g46
(g50
S'\xabW\x82\x9a\xb3 \xc1?'
p1101
tp1102
Rp1103
sg17
F0.0
sg18
g41
sg19
F0.0
sg20
F0.0
sS'frac_loan_advances'
p1104
F0.0
sS'frac_deferred_income'
p1105
F1.0
sS'frac_restricted_stock_deferred'
p1106
F1.0
sg24
F0.0
sg25
F0.0
sg26
I139130
sg27
g46
(g50
S'\xf8\xe0\x83\x0f>\xf8\xb0?'
p1107
tp1108
Rp1109
sg28
g46
(g50
S'\t*\x1c\xdd2\xe7\x8a?'
p1110
tp1111
Rp1112
sg29
F0.1499748016029313
sg30
F0.0
sg31
F0.0
sg32
F0.0
sg33
F0.004050554459854647
sS'frac_salary'
p1113
F0.0
sS'frac_restricted_stock'
p1114
F0.0
sS'frac_long_term_incentive'
p1115
F0.0
sg37
F0.0
sS'frac_other'
p1116
F0.0
ssS'LINDHOLM TOD A'
p1117
(dp1118
g3
g41
sg4
F0.1036542684938879
sg5
F0.04695236534553235
sS'frac_bonus'
p1119
F0.043944989985412915
sg7
F0.25234412907681747
sg8
I00
sg9
F1.0
sg10
S'tod.lindholm@enron.com'
p1120
sg12
F0.034010736509301254
sS'frac_expenses'
p1121
F0.06590675302464125
sS'frac_deferral_payments'
p1122
F0.6164959258536185
sS'frac_exercised_stock_options'
p1123
F0.5
sg16
g46
(g50
S'\xabW\x82\x9a\xb3 \xc1?'
p1124
tp1125
Rp1126
sg17
F0.0
sg18
g41
sg19
F0.00025386764460730586
sg20
F0.0
sS'frac_loan_advances'
p1127
F0.0
sS'frac_deferred_income'
p1128
F1.0
sS'frac_restricted_stock_deferred'
p1129
F1.0
sg24
F0.0
sg25
F0.025
sg26
I3064208
sg27
g46
(g50
S'\xf8\xe0\x83\x0f>\xf8\xb0?'
p1130
tp1131
Rp1132
sg28
g46
(g50
S'\t*\x1c\xdd2\xe7\x8a?'
p1133
tp1134
Rp1135
sg29
F0.1796213261358972
sg30
F0.21278317006491743
sg31
I875889
sg32
F0.0
sg33
F0.0742206969620463
sS'frac_salary'
p1136
F0.284785273875751
sS'frac_restricted_stock'
p1137
F0.0
sS'frac_long_term_incentive'
p1138
F0.035669392079493864
sg37
F0.0
sS'frac_other'
p1139
F0.003002663579517496
ssS'MEYER JEROME J'
p1140
(dp1141
g3
g41
sg4
F0.1036542684938879
sg5
F0.015698010104923967
sS'frac_bonus'
p1142
F0.0
sg7
F0.009402744324912683
sg8
I00
sg9
F0.989057712249735
sg10
g41
sg12
F0.0
sS'frac_expenses'
p1143
F1.0
sS'frac_deferral_payments'
p1144
F0.5
sS'frac_exercised_stock_options'
p1145
F0.5
sg16
g46
(g50
S'\xabW\x82\x9a\xb3 \xc1?'
p1146
tp1147
Rp1148
sg17
F0.0
sg18
g41
sg19
F0.0
sg20
F0.2781436778274241
sS'frac_loan_advances'
p1149
F0.0
sS'frac_deferred_income'
p1150
F0.9745695955369595
sS'frac_restricted_stock_deferred'
p1151
F1.0
sg24
F0.0
sg25
F0.0
sg26
F0.0
sg27
g46
(g50
S'\xf8\xe0\x83\x0f>\xf8\xb0?'
p1152
tp1153
Rp1154
sg28
g46
(g50
S'\t*\x1c\xdd2\xe7\x8a?'
p1155
tp1156
Rp1157
sg29
F0.1499748016029313
sg30
F0.0
sg31
I2151
sg32
F0.0
sg33
F0.0
sS'frac_salary'
p1158
F0.0
sS'frac_restricted_stock'
p1159
F0.0
sS'frac_long_term_incentive'
p1160
F0.0
sg37
F0.0
sS'frac_other'
p1161
F0.0
ssS'LAY KENNETH L'
p1162
(dp1163
g3
I4273
sg4
F0.1036542684938879
sg5
F0.04677409721126765
sS'frac_bonus'
p1164
F0.013008742366515417
sg7
F0.4363992428845574
sg8
I01
sg9
F0.9143929920961903
sg10
S'kenneth.lay@enron.com'
p1165
sg12
F0.6996494367627687
sS'frac_expenses'
p1166
F0.0009640034718879749
sS'frac_deferral_payments'
p1167
F0.5009796804055026
sS'frac_exercised_stock_options'
p1168
F0.5
sg16
I0
sg17
F1.0
sg18
I36
sg19
F1.0
sg20
F0.0
sS'frac_loan_advances'
p1169
F1.0
sS'frac_deferred_income'
p1170
F0.9999958675872669
sS'frac_restricted_stock_deferred'
p1171
F1.0
sg24
F0.1324434474757383
sg25
F0.875
sg26
I49110078
sg27
I0
sg28
I0
sg29
F1.0
sg30
F0.9649613321118948
sg31
I103559793
sg32
F0.4444444444444444
sg33
F1.0
sS'frac_salary'
p1172
F0.010923154156142173
sS'frac_restricted_stock'
p1173
F0.0
sS'frac_long_term_incentive'
p1174
F0.006206089840998807
sg37
F0.5635949962003983
sS'frac_other'
p1175
F0.10003620806773919
ssS'BUTTS ROBERT H'
p1176
(dp1177
g3
g41
sg4
F0.1036542684938879
sg5
F0.015698010104923967
sS'frac_bonus'
p1178
F0.11351293113617524
sg7
F0.04113427433632187
sg8
I00
sg9
F0.9785982480240476
sg10
S'bob.butts@enron.com'
p1179
sg12
F0.034010736509301254
sS'frac_expenses'
p1180
F0.007400230578916657
sS'frac_deferral_payments'
p1181
F0.5
sS'frac_exercised_stock_options'
p1182
F0.5
sg16
g46
(g50
S'\xabW\x82\x9a\xb3 \xc1?'
p1183
tp1184
Rp1185
sg17
F0.0
sg18
g41
sg19
F0.014542465348273106
sg20
F0.0
sS'frac_loan_advances'
p1186
F0.0
sS'frac_deferred_income'
p1187
F0.9999158623259788
sS'frac_restricted_stock_deferred'
p1188
F1.0
sg24
F0.0
sg25
F0.09375
sg26
I417619
sg27
g46
(g50
S'\xf8\xe0\x83\x0f>\xf8\xb0?'
p1189
tp1190
Rp1191
sg28
g46
(g50
S'\t*\x1c\xdd2\xe7\x8a?'
p1192
tp1193
Rp1194
sg29
F0.17402262926616463
sg30
F0.23533328893920225
sg31
I1271582
sg32
F0.0
sg33
F0.0
sS'frac_salary'
p1195
F0.2169543281911965
sS'frac_restricted_stock'
p1196
F0.3333333333333333
sS'frac_long_term_incentive'
p1197
F0.0245697313732939
sg37
F0.0
sS'frac_other'
p1198
F0.11847918577016661
ssS'OLSON CINDY K'
p1199
(dp1200
g3
I1184
sg4
F0.1036542684938879
sg5
F0.027600317942136368
sS'frac_bonus'
p1201
F0.1092204119837434
sg7
F0.278851912241053
sg8
I00
sg9
F1.0
sg10
S'cindy.olson@enron.com'
p1202
sg12
F0.019434706576743576
sS'frac_expenses'
p1203
F0.04826957898902582
sS'frac_deferral_payments'
p1204
F0.5294031963812382
sS'frac_exercised_stock_options'
p1205
F0.5
sg16
I0
sg17
F0.0
sg18
I52
sg19
F9.38248481210271e-05
sg20
F0.0
sS'frac_loan_advances'
p1206
F0.0
sS'frac_deferred_income'
p1207
F1.0
sS'frac_restricted_stock_deferred'
p1208
F1.0
sg24
F0.07772067280046004
sg25
F0.09375
sg26
I2606763
sg27
I0
sg28
I0
sg29
F0.20581487562264686
sg30
F0.296131051474995
sg31
I1321557
sg32
F0.28846153846153844
sg33
F0.047659709405834055
sS'frac_salary'
p1209
F0.2626802222683268
sS'frac_restricted_stock'
p1210
F0.0
sS'frac_long_term_incentive'
p1211
F0.01350892628234977
sg37
F0.7221457727750634
sS'frac_other'
p1212
F0.0007354960852993855
ssS'MCDONALD REBECCA'
p1213
(dp1214
g3
I894
sg4
F0.1036542684938879
sg5
F0.015698010104923967
sS'frac_bonus'
p1215
F0.0
sg7
F0.0
sg8
I00
sg9
F1.0
sg10
S'rebecca.mcdonald@enron.com'
p1216
sg12
F0.0
sS'frac_expenses'
p1217
F0.0
sS'frac_deferral_payments'
p1218
F0.5
sS'frac_exercised_stock_options'
p1219
F0.5
sg16
I0
sg17
F0.0
sg18
I13
sg19
F0.0
sg20
F0.0
sS'frac_loan_advances'
p1220
F0.0
sS'frac_deferred_income'
p1221
F1.0
sS'frac_restricted_stock_deferred'
p1222
F1.0
sg24
F0.2779166071683564
sg25
F0.0
sg26
I1691366
sg27
I0
sg28
I0
sg29
F0.20376122929481802
sg30
F0.0
sg31
F0.0
sg32
F0.07692307692307693
sg33
F0.022047645676722374
sS'frac_salary'
p1223
F0.0
sS'frac_restricted_stock'
p1224
F0.0
sS'frac_long_term_incentive'
p1225
F0.0
sg37
F0.804447652542503
sS'frac_other'
p1226
F0.0
ssS'CUMBERLAND MICHAEL S'
p1227
(dp1228
g3
g41
sg4
F0.1036542684938879
sg5
F0.015698010104923967
sS'frac_bonus'
p1229
F0.07741481796863525
sg7
F0.09767313770146396
sg8
I00
sg9
F1.0
sg10
g41
sg12
F0.05344544308604483
sS'frac_expenses'
p1230
F0.02765497131031888
sS'frac_deferral_payments'
p1231
F0.5
sS'frac_exercised_stock_options'
p1232
F0.5
sg16
g46
(g50
S'\xabW\x82\x9a\xb3 \xc1?'
p1233
tp1234
Rp1235
sg17
F0.0
sg18
g41
sg19
F6.882419414639128e-05
sg20
F0.0
sS'frac_loan_advances'
p1236
F0.0
sS'frac_deferred_income'
p1237
F1.0
sS'frac_restricted_stock_deferred'
p1238
F1.0
sg24
F0.0
sg25
F0.040625
sg26
I207940
sg27
g46
(g50
S'\xf8\xe0\x83\x0f>\xf8\xb0?'
p1239
tp1240
Rp1241
sg28
g46
(g50
S'\t*\x1c\xdd2\xe7\x8a?'
p1242
tp1243
Rp1244
sg29
F0.16194864686450403
sg30
F0.16638710362490078
sg31
I807956
sg32
F0.0
sg33
F0.0
sS'frac_salary'
p1245
F0.24141334700251474
sS'frac_restricted_stock'
p1246
F0.3333333333333333
sS'frac_long_term_incentive'
p1247
F0.06076474987504161
sg37
F0.0
sS'frac_other'
p1248
F0.0008824737980781132
ssS'GAHN ROBERT S'
p1249
(dp1250
g3
g41
sg4
F0.1036542684938879
sg5
F0.026896740786799583
sS'frac_bonus'
p1251
F0.10895902207268977
sg7
F0.21891652059117953
sg8
I00
sg9
F0.9997026583258808
sg10
g41
sg12
F0.0
sS'frac_expenses'
p1252
F0.055608299050061906
sS'frac_deferral_payments'
p1253
F0.540596945318876
sS'frac_exercised_stock_options'
p1254
F0.5
sg16
g46
(g50
S'\xabW\x82\x9a\xb3 \xc1?'
p1255
tp1256
Rp1257
sg17
F0.0
sg18
g41
sg19
F0.007388899844773932
sg20
F0.0
sS'frac_loan_advances'
p1258
F0.0
sS'frac_deferred_income'
p1259
F0.9999983494958531
sS'frac_restricted_stock_deferred'
p1260
F1.0
sg24
F0.0
sg25
F0.06373375
sg26
I318607
sg27
g46
(g50
S'\xf8\xe0\x83\x0f>\xf8\xb0?'
p1261
tp1262
Rp1263
sg28
g46
(g50
S'\t*\x1c\xdd2\xe7\x8a?'
p1264
tp1265
Rp1266
sg29
F0.16352815333524048
sg30
F0.17278435790788457
sg31
I900585
sg32
F0.0
sg33
F0.002423316334183291
sS'frac_salary'
p1267
F0.2249101421749354
sS'frac_restricted_stock'
p1268
F0.0
sS'frac_long_term_incentive'
p1269
F0.0
sg37
F0.0
sS'frac_other'
p1270
F0.08499697418899937
ssS'MCCLELLAN GEORGE'
p1271
(dp1272
g3
I1744
sg4
F0.1036542684938879
sg5
F0.015698010104923967
sS'frac_bonus'
p1273
F0.13134217444681112
sg7
F1.0
sg8
I00
sg9
F0.9643304133734126
sg10
S'george.mcclellan@enron.com'
p1274
sg12
F0.0
sS'frac_expenses'
p1275
F0.17346786344475845
sS'frac_deferral_payments'
p1276
F0.5
sS'frac_exercised_stock_options'
p1277
F0.5
sg16
I0
sg17
F0.0
sg18
I49
sg19
F0.0049795704115426186
sg20
F0.0
sS'frac_loan_advances'
p1278
F0.0
sS'frac_deferred_income'
p1279
F0.999864787491754
sS'frac_restricted_stock_deferred'
p1280
F1.0
sg24
F0.13718768299824322
sg25
F0.1125
sg26
I947861
sg27
I0
sg28
I0
sg29
F0.17537450944893823
sg30
F0.2370403632639765
sg31
I1318763
sg32
F0.0
sg33
F0.014753678076965718
sS'frac_salary'
p1281
F0.21070986847999543
sS'frac_restricted_stock'
p1282
F0.0
sS'frac_long_term_incentive'
p1283
F0.0
sg37
F0.8413527648898873
sS'frac_other'
p1284
F0.03911771864997729
ssS'HERMANN ROBERT J'
p1285
(dp1286
g3
g41
sg4
F0.1036542684938879
sg5
F0.015698010104923967
sS'frac_bonus'
p1287
F0.10383222822625625
sg7
F0.21138470819144706
sg8
I00
sg9
F0.9201001259564443
sg10
S'robert.hermann@enron.com'
p1288
sg12
F0.029152059865115362
sS'frac_expenses'
p1289
F0.0372704844307459
sS'frac_deferral_payments'
p1290
F0.5
sS'frac_exercised_stock_options'
p1291
F0.5
sg16
g46
(g50
S'\xabW\x82\x9a\xb3 \xc1?'
p1292
tp1293
Rp1294
sg17
F0.0
sg18
g41
sg19
F0.04019805923494717
sg20
F0.0
sS'frac_loan_advances'
p1295
F0.0
sS'frac_deferred_income'
p1296
F0.9996921512964575
sS'frac_restricted_stock_deferred'
p1297
F1.0
sg24
F0.0
sg25
F0.0875
sg26
I668132
sg27
g46
(g50
S'\xf8\xe0\x83\x0f>\xf8\xb0?'
p1298
tp1299
Rp1300
sg28
g46
(g50
S'\t*\x1c\xdd2\xe7\x8a?'
p1301
tp1302
Rp1303
sg29
F0.17765111782761256
sg30
F0.2363654524871812
sg31
I1297461
sg32
F0.0
sg33
F0.005458772092451278
sS'frac_salary'
p1304
F0.21355955792023512
sS'frac_restricted_stock'
p1305
F0.0
sS'frac_long_term_incentive'
p1306
F0.020639714131203152
sg37
F0.0
sS'frac_other'
p1307
F0.32096610225663813
ssS'SCRIMSHAW MATTHEW'
p1308
(dp1309
g3
g41
sg4
F0.1036542684938879
sg5
F0.015698010104923967
sS'frac_bonus'
p1310
F0.0
sg7
F0.0
sg8
I00
sg9
F1.0
sg10
S'matthew.scrimshaw@enron.com'
p1311
sg12
F0.0
sS'frac_expenses'
p1312
F0.0
sS'frac_deferral_payments'
p1313
F0.5
sS'frac_exercised_stock_options'
p1314
F1.0
sg16
g46
(g50
S'\xabW\x82\x9a\xb3 \xc1?'
p1315
tp1316
Rp1317
sg17
F0.0
sg18
g41
sg19
F0.0
sg20
F0.0
sS'frac_loan_advances'
p1318
F0.0
sS'frac_deferred_income'
p1319
F1.0
sS'frac_restricted_stock_deferred'
p1320
F1.0
sg24
F0.0
sg25
F0.0
sg26
I759557
sg27
g46
(g50
S'\xf8\xe0\x83\x0f>\xf8\xb0?'
p1321
tp1322
Rp1323
sg28
g46
(g50
S'\t*\x1c\xdd2\xe7\x8a?'
p1324
tp1325
Rp1326
sg29
F0.1499748016029313
sg30
F0.0
sg31
F0.0
sg32
F0.0
sg33
F0.02211332562253875
sS'frac_salary'
p1327
F0.0
sS'frac_restricted_stock'
p1328
F0.0
sS'frac_long_term_incentive'
p1329
F0.0
sg37
F0.0
sS'frac_other'
p1330
F0.0
ssS'GATHMANN WILLIAM D'
p1331
(dp1332
g3
g41
sg4
F0.09945452447187866
sg5
F0.015698010104923967
sS'frac_bonus'
p1333
F0.0
sg7
F0.0
sg8
I00
sg9
F1.0
sg10
g41
sg12
F0.0
sS'frac_expenses'
p1334
F0.0
sS'frac_deferral_payments'
p1335
F0.5
sS'frac_exercised_stock_options'
p1336
F0.5
sg16
g46
(g50
S'\xabW\x82\x9a\xb3 \xc1?'
p1337
tp1338
Rp1339
sg17
F0.0
sg18
g41
sg19
F0.0
sg20
F0.0
sS'frac_loan_advances'
p1340
F0.0
sS'frac_deferred_income'
p1341
F1.0
sS'frac_restricted_stock_deferred'
p1342
F0.6666666666666666
sg24
F0.0
sg25
F0.0
sg26
I1945360
sg27
g46
(g50
S'\xf8\xe0\x83\x0f>\xf8\xb0?'
p1343
tp1344
Rp1345
sg28
g46
(g50
S'\t*\x1c\xdd2\xe7\x8a?'
p1346
tp1347
Rp1348
sg29
F0.16517750819638902
sg30
F0.0
sg31
F0.0
sg32
F0.0
sg33
F0.051058180786612846
sS'frac_salary'
p1349
F0.0
sS'frac_restricted_stock'
p1350
F0.0
sS'frac_long_term_incentive'
p1351
F0.0
sg37
F0.0
sS'frac_other'
p1352
F0.0
ssS'HAEDICKE MARK E'
p1353
(dp1354
g3
I4009
sg4
F0.08452695974812786
sg5
F0.3461261139844
sS'frac_bonus'
p1355
F0.05735142234366787
sg7
F0.3329603126379703
sg8
I00
sg9
F0.7333387360867211
sg10
S'mark.haedicke@enron.com'
p1356
sg12
F0.19111040973414486
sS'frac_expenses'
p1357
F0.019737682573369456
sS'frac_deferral_payments'
p1358
F0.7795401217652462
sS'frac_exercised_stock_options'
p1359
F0.5
sg16
I0
sg17
F0.0
sg18
I1941
sg19
F0.005056309870653953
sg20
F0.0
sS'frac_loan_advances'
p1360
F0.0
sS'frac_deferred_income'
p1361
F0.9996545673484583
sS'frac_restricted_stock_deferred'
p1362
F0.6666666666666666
sg24
F0.20658306045440314
sg25
F0.14375
sg26
I803094
sg27
I0
sg28
I0
sg29
F0.1801581164866156
sg30
F0.3366679924913926
sg31
I3859065
sg32
F0.03142709943328181
sg33
F0.017722813393491816
sS'frac_salary'
p1363
F0.1022701896988563
sS'frac_restricted_stock'
p1364
F0.0
sS'frac_long_term_incentive'
p1365
F0.04549157708342585
sg37
F0.4601862628308274
sS'frac_other'
p1366
F0.013573754264310137
ssS'BOWEN JR RAYMOND M'
p1367
(dp1368
g3
I1858
sg4
F0.1036542684938879
sg5
F0.015698010104923967
sS'frac_bonus'
p1369
F0.09732352058687685
sg7
F0.28810165979638314
sg8
I01
sg9
F0.9997622978747204
sg10
S'raymond.bowen@enron.com'
p1370
sg12
F0.18935098574775228
sS'frac_expenses'
p1371
F0.024688069961331126
sS'frac_deferral_payments'
p1372
F0.5
sS'frac_exercised_stock_options'
p1373
F0.5
sg16
I0
sg17
F0.0
sg18
I27
sg19
F0.0001564712744899022
sg20
F0.0
sS'frac_loan_advances'
p1374
F0.0
sS'frac_deferred_income'
p1375
F0.9999995548829733
sS'frac_restricted_stock_deferred'
p1376
F1.0
sg24
F0.3466894166685752
sg25
F0.16875
sg26
I252055
sg27
I0
sg28
I0
sg29
F0.16448892859824588
sg30
F0.25070775643459936
sg31
I2669589
sg32
F0.5555555555555556
sg33
F0.0
sS'frac_salary'
p1377
F0.11009122193256496
sS'frac_restricted_stock'
p1378
F0.3333333333333333
sS'frac_long_term_incentive'
p1379
F0.06515562413417926
sg37
F0.8563925433464787
sS'frac_other'
p1380
F0.000607209574207865
ssS'GILLIS JOHN'
p1381
(dp1382
g3
g41
sg4
F0.1036542684938879
sg5
F0.015698010104923967
sS'frac_bonus'
p1383
F0.0
sg7
F0.0
sg8
I00
sg9
F1.0
sg10
g41
sg12
F0.0
sS'frac_expenses'
p1384
F0.0
sS'frac_deferral_payments'
p1385
F0.5
sS'frac_exercised_stock_options'
p1386
F0.5
sg16
g46
(g50
S'\xabW\x82\x9a\xb3 \xc1?'
p1387
tp1388
Rp1389
sg17
F0.0
sg18
g41
sg19
F0.0
sg20
F0.0
sS'frac_loan_advances'
p1390
F0.0
sS'frac_deferred_income'
p1391
F1.0
sS'frac_restricted_stock_deferred'
p1392
F1.0
sg24
F0.0
sg25
F0.0
sg26
I85641
sg27
g46
(g50
S'\xf8\xe0\x83\x0f>\xf8\xb0?'
p1393
tp1394
Rp1395
sg28
g46
(g50
S'\t*\x1c\xdd2\xe7\x8a?'
p1396
tp1397
Rp1398
sg29
F0.1543417943746306
sg30
F0.0
sg31
F0.0
sg32
F0.0
sg33
F0.00028539916171893266
sS'frac_salary'
p1399
F0.0
sS'frac_restricted_stock'
p1400
F0.0
sS'frac_long_term_incentive'
p1401
F0.0
sg37
F0.0
sS'frac_other'
p1402
F0.0
ssS'FITZGERALD JAY L'
p1403
(dp1404
g3
I936
sg4
F0.1036542684938879
sg5
F0.015698010104923967
sS'frac_bonus'
p1405
F0.04760843910962969
sg7
F0.10434379685526068
sg8
I00
sg9
F1.0
sg10
S'jay.fitzgerald@enron.com'
p1406
sg12
F0.10813781694605352
sS'frac_expenses'
p1407
F0.01687096293123616
sS'frac_deferral_payments'
p1408
F0.5
sS'frac_exercised_stock_options'
p1409
F0.5
sg16
I0
sg17
F0.0
sg18
I16
sg19
F0.027550334569562584
sg20
F0.0
sS'frac_loan_advances'
p1410
F0.0
sS'frac_deferred_income'
p1411
F1.0
sS'frac_restricted_stock_deferred'
p1412
F1.0
sg24
F0.004915666484815421
sg25
F0.04375
sg26
I1621236
sg27
I0
sg28
I0
sg29
F0.20506894318291227
sg30
F0.17921760743229745
sg31
I1414857
sg32
F0.5
sg33
F0.0193447528710521
sS'frac_salary'
p1413
F0.14849008408260808
sS'frac_restricted_stock'
p1414
F0.0
sS'frac_long_term_incentive'
p1415
F0.07020916260828612
sg37
F0.7715521035029045
sS'frac_other'
p1416
F0.20172639355072633
ssS'MORAN MICHAEL P'
p1417
(dp1418
g3
I672
sg4
F0.1036542684938879
sg5
F0.015698010104923967
sS'frac_bonus'
p1419
F0.0
sg7
F0.0
sg8
I00
sg9
F1.0
sg10
S'michael.moran@enron.com'
p1420
sg12
F0.0
sS'frac_expenses'
p1421
F0.0
sS'frac_deferral_payments'
p1422
F0.5
sS'frac_exercised_stock_options'
p1423
F0.5
sg16
I0
sg17
F0.0
sg18
I19
sg19
F0.0
sg20
F0.0
sS'frac_loan_advances'
p1424
F0.0
sS'frac_deferred_income'
p1425
F1.0
sS'frac_restricted_stock_deferred'
p1426
F1.0
sg24
F0.0
sg25
F0.0
sg26
I221141
sg27
I0
sg28
I0
sg29
F0.15928035773431862
sg30
F0.0
sg31
F0.0
sg32
F0.0
sg33
F0.0017333857685997687
sS'frac_salary'
p1427
F0.0
sS'frac_restricted_stock'
p1428
F0.0
sS'frac_long_term_incentive'
p1429
F0.0
sg37
F0.18877186171951618
sS'frac_other'
p1430
F0.0
ssS'REDMOND BRIAN L'
p1431
(dp1432
g3
I1671
sg4
F0.1036542684938879
sg5
F0.015698010104923967
sS'frac_bonus'
p1433
F0.0
sg7
F0.0642105585256357
sg8
I00
sg9
F1.0
sg10
S'brian.redmond@enron.com'
p1434
sg12
F0.0
sS'frac_expenses'
p1435
F0.1317056550314268
sS'frac_deferral_payments'
p1436
F0.5
sS'frac_exercised_stock_options'
p1437
F0.5
sg16
I0
sg17
F0.0
sg18
I221
sg19
F0.0
sg20
F0.0
sS'frac_loan_advances'
p1438
F0.0
sS'frac_deferred_income'
p1439
F1.0
sS'frac_restricted_stock_deferred'
p1440
F1.0
sg24
F0.5617097673707934
sg25
F0.0
sg26
I7890324
sg27
I0
sg28
I0
sg29
F0.17193040221156242
sg30
F0.08714447949981012
sg31
I111529
sg32
F0.22171945701357465
sg33
F0.218614040183084
sS'frac_salary'
p1441
F0.9159703122713327
sS'frac_restricted_stock'
p1442
F0.0
sS'frac_long_term_incentive'
p1443
F0.0
sg37
F0.6354181644885768
sS'frac_other'
p1444
F0.0
ssS'BAZELIDES PHILIP J'
p1445
(dp1446
g3
g41
sg4
F0.1036542684938879
sg5
F0.12055979869790749
sS'frac_bonus'
p1447
F0.0
sg7
F0.0
sg8
I00
sg9
F1.0
sg10
g41
sg12
F0.018220037415697103
sS'frac_expenses'
p1448
F0.0
sS'frac_deferral_payments'
p1449
F0.8980149650752904
sS'frac_exercised_stock_options'
p1450
F1.0
sg16
g46
(g50
S'\xabW\x82\x9a\xb3 \xc1?'
p1451
tp1452
Rp1453
sg17
F0.0
sg18
g41
sg19
F8.436514121170544e-05
sg20
F0.0
sS'frac_loan_advances'
p1454
F0.0
sS'frac_deferred_income'
p1455
F1.0
sS'frac_restricted_stock_deferred'
p1456
F1.0
sg24
F0.0
sg25
F0.0
sg26
I1599641
sg27
g46
(g50
S'\xf8\xe0\x83\x0f>\xf8\xb0?'
p1457
tp1458
Rp1459
sg28
g46
(g50
S'\t*\x1c\xdd2\xe7\x8a?'
p1460
tp1461
Rp1462
sg29
F0.1499748016029313
sg30
F0.0727265855453909
sg31
I860136
sg32
F0.0
sg33
F0.046571070126617896
sS'frac_salary'
p1463
F0.09911865475817454
sS'frac_restricted_stock'
p1464
F0.0
sS'frac_long_term_incentive'
p1465
F0.019458568279017048
sg37
F0.0
sS'frac_other'
p1466
F0.0010161183812792396
ssS'BELDEN TIMOTHY N'
p1467
(dp1468
g3
I7991
sg4
F0.1036542684938879
sg5
F0.3440564270716396
sS'frac_bonus'
p1469
F0.18365226442805738
sg7
F0.07586454103154794
sg8
I01
sg9
F0.33385363370359317
sg10
S'tim.belden@enron.com'
p1470
sg12
F0.0
sS'frac_expenses'
p1471
F0.003154519660536968
sS'frac_deferral_payments'
p1472
F0.6948525255242537
sS'frac_exercised_stock_options'
p1473
F0.5
sg16
I1
sg17
F0.0
sg18
I484
sg19
F0.02033817679979853
sg20
F0.0
sS'frac_loan_advances'
p1474
F0.0
sS'frac_deferred_income'
p1475
F0.9993947095381087
sS'frac_restricted_stock_deferred'
p1476
F1.0
sg24
F0.1312780069067062
sg25
F0.656249875
sg26
I1110705
sg27
I0
sg28
I0
sg29
F0.15904812479241265
sg30
F0.1925736417645587
sg31
I5501630
sg32
F0.2231404958677686
sg33
F0.02774907838459009
sS'frac_salary'
p1477
F0.04103314356713175
sS'frac_restricted_stock'
p1478
F0.0
sS'frac_long_term_incentive'
p1479
F0.0
sg37
F0.6901117590240966
sS'frac_other'
p1480
F0.03829737732272072
ssS'DURAN WILLIAM D'
p1481
(dp1482
g3
I904
sg4
F0.1036542684938879
sg5
F0.015698010104923967
sS'frac_bonus'
p1483
F0.06895502380732856
sg7
F0.11271490581955998
sg8
I00
sg9
F1.0
sg10
S'w.duran@enron.com'
p1484
sg12
F0.21479587533335381
sS'frac_expenses'
p1485
F0.01231808903133529
sS'frac_deferral_payments'
p1486
F0.5
sS'frac_exercised_stock_options'
p1487
F0.5
sg16
I0
sg17
F0.0
sg18
I12
sg19
F0.0001513553105491466
sg20
F0.0
sS'frac_loan_advances'
p1488
F0.0
sS'frac_deferred_income'
p1489
F1.0
sS'frac_restricted_stock_deferred'
p1490
F1.0
sg24
F0.5395052720768216
sg25
F0.09375
sg26
I1640910
sg27
I0
sg28
I0
sg29
F0.16086038245362366
sg30
F0.18959773517940928
sg31
I2093263
sg32
F0.25
sg33
F0.04226891722184077
sS'frac_salary'
p1491
F0.1061790105575847
sS'frac_restricted_stock'
p1492
F0.0
sS'frac_long_term_incentive'
p1493
F0.09426074838363878
sg37
F0.6618524837488102
sS'frac_other'
p1494
F0.0007490697537767591
ssS'THORN TERENCE H'
p1495
(dp1496
g3
I266
sg4
F0.1036542684938879
sg5
F0.01823817786687781
sS'frac_bonus'
p1497
F0.0
sg7
F0.20171531235383344
sg8
I00
sg9
F1.0
sg10
S'terence.thorn@enron.com'
p1498
sg12
F0.03886941315348715
sS'frac_expenses'
p1499
F0.050627953388710116
sS'frac_deferral_payments'
p1500
F0.5090986589544387
sS'frac_exercised_stock_options'
p1501
F0.5
sg16
I0
sg17
F0.0
sg18
I41
sg19
F0.04118148264303053
sg20
F0.0
sS'frac_loan_advances'
p1502
F0.0
sS'frac_deferred_income'
p1503
F1.0
sS'frac_restricted_stock_deferred'
p1504
F1.0
sg24
F0.0
sg25
F0.0
sg26
I4817796
sg27
I0
sg28
I0
sg29
F0.17101108683404484
sg30
F0.1998572788677337
sg31
I911453
sg32
F0.0
sg33
F0.12962694256591517
sS'frac_salary'
p1505
F0.2570484663926603
sS'frac_restricted_stock'
p1506
F0.0
sS'frac_long_term_incentive'
p1507
F0.03917440853433652
sg37
F0.274122090122331
sS'frac_other'
p1508
F0.4680756989115182
ssS'FASTOW ANDREW S'
p1509
(dp1510
g3
g41
sg4
F0.1036542684938879
sg5
F0.015698010104923967
sS'frac_bonus'
p1511
F0.10321060238723949
sg7
F0.24444949576636082
sg8
I01
sg9
F0.6044799288662835
sg10
S'andrew.fastow@enron.com'
p1512
sg12
F0.3373971952608857
sS'frac_expenses'
p1513
F0.02306892957048088
sS'frac_deferral_payments'
p1514
F0.5
sS'frac_exercised_stock_options'
p1515
F0.5
sg16
g46
(g50
S'\xabW\x82\x9a\xb3 \xc1?'
p1516
tp1517
Rp1518
sg17
F0.0
sg18
g41
sg19
F0.026782939978449244
sg20
F0.0
sS'frac_loan_advances'
p1519
F0.0
sS'frac_deferred_income'
p1520
F0.9991843448399956
sS'frac_restricted_stock_deferred'
p1521
F1.0
sg24
F0.0
sg25
F0.1625
sg26
I1794412
sg27
g46
(g50
S'\xf8\xe0\x83\x0f>\xf8\xb0?'
p1522
tp1523
Rp1524
sg28
g46
(g50
S'\t*\x1c\xdd2\xe7\x8a?'
p1525
tp1526
Rp1527
sg29
F0.2533027405444973
sg30
F0.3965757726828513
sg31
I2424083
sg32
F0.0
sg33
F0.0
sS'frac_salary'
p1528
F0.1917820775667013
sS'frac_restricted_stock'
p1529
F0.3333333333333333
sS'frac_long_term_incentive'
p1530
F0.12785647454615984
sg37
F0.0
sS'frac_other'
p1531
F0.11446142726961082
ssS'FOY JOE'
p1532
(dp1533
g3
I57
sg4
F0.1036542684938879
sg5
F0.04353402792561134
sS'frac_bonus'
p1534
F0.0
sg7
F0.0
sg8
I00
sg9
F1.0
sg10
S'tracy.foy@enron.com'
p1535
sg12
F0.0
sS'frac_expenses'
p1536
F0.0
sS'frac_deferral_payments'
p1537
F1.0
sS'frac_exercised_stock_options'
p1538
F1.0
sg16
I0
sg17
F0.0
sg18
I13
sg19
F0.0
sg20
F0.0
sS'frac_loan_advances'
p1539
F0.0
sS'frac_deferred_income'
p1540
F1.0
sS'frac_restricted_stock_deferred'
p1541
F1.0
sg24
F0.0
sg25
F0.0
sg26
I343434
sg27
I0
sg28
I0
sg29
F0.1499748016029313
sg30
F0.0
sg31
I181755
sg32
F0.0
sg33
F0.009998548985594198
sS'frac_salary'
p1542
F0.0
sS'frac_restricted_stock'
p1543
F0.0
sS'frac_long_term_incentive'
p1544
F0.0
sg37
F0.035047573166325424
sS'frac_other'
p1545
F0.0
ssS'CALGER CHRISTOPHER F'
p1546
(dp1547
g3
I2598
sg4
F0.1036542684938879
sg5
F0.015698010104923967
sS'frac_bonus'
p1548
F0.1467509141621886
sg7
F0.15657252265445024
sg8
I01
sg9
F0.9250938680841665
sg10
S'christopher.calger@enron.com'
p1549
sg12
F0.0729392311707817
sS'frac_expenses'
p1550
F0.021849609924254117
sS'frac_deferral_payments'
p1551
F0.5
sS'frac_exercised_stock_options'
p1552
F0.5
sg16
I0
sg17
F0.0
sg18
I144
sg19
F4.691242406051355e-05
sg20
F0.0
sS'frac_loan_advances'
p1553
F0.0
sS'frac_deferred_income'
p1554
F0.9997715741373738
sS'frac_restricted_stock_deferred'
p1555
F1.0
sg24
F0.35242944654644326
sg25
F0.15625
sg26
I126027
sg27
I0
sg28
I0
sg29
F0.15723183630900145
sg30
F0.21614152609025086
sg31
I1639297
sg32
F0.1736111111111111
sg33
F0.0
sS'frac_salary'
p1556
F0.15456455050577583
sS'frac_restricted_stock'
p1557
F0.3333333333333333
sS'frac_long_term_incentive'
p1558
F0.04087260142724524
sg37
F0.8412226972693306
sS'frac_other'
p1559
F0.00029646854718821546
ssS'RICE KENNETH D'
p1560
(dp1561
g3
I905
sg4
F0.1036542684938879
sg5
F0.015698010104923967
sS'frac_bonus'
p1562
F0.6668560868560868
sg7
F0.2052342380542308
sg8
I01
sg9
F0.0
sg10
S'ken.rice@enron.com'
p1563
sg12
F0.31426134316366705
sS'frac_expenses'
p1564
F0.09296109296109296
sS'frac_deferral_payments'
p1565
F0.5
sS'frac_exercised_stock_options'
p1566
F0.5
sg16
I0
sg17
F0.0
sg18
I18
sg19
F0.016876792819580513
sg20
F0.0
sS'frac_loan_advances'
p1567
F0.0
sS'frac_deferred_income'
p1568
F0.9901019151771923
sS'frac_restricted_stock_deferred'
p1569
F1.0
sg24
F0.2135300340895733
sg25
F0.21875
sg26
I22542539
sg27
I0
sg28
I0
sg29
F0.3082343248234615
sg30
F0.3785223593440947
sg31
I505050
sg32
F0.2222222222222222
sg33
F0.5762767471098494
sS'frac_salary'
p1570
F0.8785904711638153
sS'frac_restricted_stock'
p1571
F0.0
sS'frac_long_term_incentive'
p1572
F0.5715909315909316
sg37
F0.9536038029255218
sS'frac_other'
p1573
F0.3461815661815662
ssS'KAMINSKI WINCENTY J'
p1574
(dp1575
g3
I4607
sg4
F0.1036542684938879
sg5
F0.015698010104923967
sS'frac_bonus'
p1576
F0.07083214868563145
sg7
F0.36537814244436384
sg8
I00
sg9
F1.0
sg10
S'vince.kaminski@enron.com'
p1577
sg12
F0.06286466797552938
sS'frac_expenses'
p1578
F0.07690778886311546
sS'frac_deferral_payments'
p1579
F0.5
sS'frac_exercised_stock_options'
p1580
F0.5
sg16
I0
sg17
F0.0
sg18
I14368
sg19
F0.00045068746489411064
sg20
F0.0
sS'frac_loan_advances'
p1581
F0.0
sS'frac_deferred_income'
p1582
F1.0
sS'frac_restricted_stock_deferred'
p1583
F1.0
sg24
F0.040947171048681695
sg25
F0.05
sg26
I976037
sg27
I0
sg28
I0
sg29
F0.15723183630900145
sg30
F0.24755817280955458
sg31
I1086821
sg32
F0.011901447661469933
sg33
F0.024746724620290726
sS'frac_salary'
p1584
F0.2670229397780838
sS'frac_restricted_stock'
p1585
F0.0
sS'frac_long_term_incentive'
p1586
F0.05313459170982711
sg37
F0.12640176946930326
sS'frac_other'
p1587
F0.004296015627228403
ssS'LOCKHART EUGENE E'
p1588
(dp1589
g3
g41
sg4
F0.1036542684938879
sg5
F0.015698010104923967
sS'frac_bonus'
p1590
F0.0
sg7
F0.0
sg8
I00
sg9
F1.0
sg10
g41
sg12
F0.0
sS'frac_expenses'
p1591
F0.0
sS'frac_deferral_payments'
p1592
F0.5
sS'frac_exercised_stock_options'
p1593
F0.5
sg16
g46
(g50
S'\xabW\x82\x9a\xb3 \xc1?'
p1594
tp1595
Rp1596
sg17
F0.0
sg18
g41
sg19
F0.0
sg20
F0.0
sS'frac_loan_advances'
p1597
F0.0
sS'frac_deferred_income'
p1598
F1.0
sS'frac_restricted_stock_deferred'
p1599
F1.0
sg24
F0.0
sg25
F0.0
sg26
F0.0
sg27
g46
(g50
S'\xf8\xe0\x83\x0f>\xf8\xb0?'
p1600
tp1601
Rp1602
sg28
g46
(g50
S'\t*\x1c\xdd2\xe7\x8a?'
p1603
tp1604
Rp1605
sg29
F0.1499748016029313
sg30
F0.0
sg31
F0.0
sg32
F0.0
sg33
F0.0
sS'frac_salary'
p1606
F0.0
sS'frac_restricted_stock'
p1607
F0.0
sS'frac_long_term_incentive'
p1608
F0.0
sg37
F0.0
sS'frac_other'
p1609
F0.0
ssS'COX DAVID'
p1610
(dp1611
g3
I102
sg4
F0.1036542684938879
sg5
F0.015698010104923967
sS'frac_bonus'
p1612
F0.13979000532356145
sg7
F0.12178979992393875
sg8
I00
sg9
F0.9882290364132261
sg10
S'chip.cox@enron.com'
p1613
sg12
F0.0
sS'frac_expenses'
p1614
F0.025296147696598763
sS'frac_deferral_payments'
p1615
F0.5
sS'frac_exercised_stock_options'
p1616
F0.5
sg16
I0
sg17
F0.0
sg18
I33
sg19
F4.768464503270308e-05
sg20
F0.0
sS'frac_loan_advances'
p1617
F0.0
sS'frac_deferred_income'
p1618
F0.9999465736812437
sS'frac_restricted_stock_deferred'
p1619
F1.0
sg24
F0.0
sg25
F0.1
sg26
I495633
sg27
I0
sg28
I0
sg29
F0.17174596330431602
sg30
F0.28282181095659154
sg31
I1101393
sg32
F0.12121212121212122
sg33
F0.0034223152972786145
sS'frac_salary'
p1620
F0.3010231615305467
sS'frac_restricted_stock'
p1621
F0.0
sS'frac_long_term_incentive'
p1622
F0.0
sg37
F0.6952820029613676
sS'frac_other'
p1623
F0.0004485229159800362
ssS'OVERDYKE JR JERE C'
p1624
(dp1625
g3
g41
sg4
F0.1036542684938879
sg5
F0.015698010104923967
sS'frac_bonus'
p1626
F0.0
sg7
F0.08232974738047674
sg8
I00
sg9
F1.0
sg10
S'jere.overdyke@enron.com'
p1627
sg12
F0.0263993280255854
sS'frac_expenses'
p1628
F0.07540024100533654
sS'frac_deferral_payments'
p1629
F0.5
sS'frac_exercised_stock_options'
p1630
F0.5
sg16
g46
(g50
S'\xabW\x82\x9a\xb3 \xc1?'
p1631
tp1632
Rp1633
sg17
F0.0
sg18
g41
sg19
F1.6988861388169517e-05
sg20
F0.0
sS'frac_loan_advances'
p1634
F0.0
sS'frac_deferred_income'
p1635
F1.0
sS'frac_restricted_stock_deferred'
p1636
F1.0
sg24
F0.0
sg25
F0.0
sg26
I7307594
sg27
g46
(g50
S'\xf8\xe0\x83\x0f>\xf8\xb0?'
p1637
tp1638
Rp1639
sg28
g46
(g50
S'\t*\x1c\xdd2\xe7\x8a?'
p1640
tp1641
Rp1642
sg29
F0.26750298165676467
sg30
F0.08543560541296441
sg31
I249787
sg32
F0.0
sg33
F0.15332826138196196
sS'frac_salary'
p1643
F0.40095754945542883
sS'frac_restricted_stock'
p1644
F0.0
sS'frac_long_term_incentive'
p1645
F0.0970849214141112
sg37
F0.0
sS'frac_other'
p1646
F0.0007046003194721903
ssS'PEREIRA PAULO V. FERRAZ'
p1647
(dp1648
g3
g41
sg4
F0.1036542684938879
sg5
F0.015698010104923967
sS'frac_bonus'
p1649
F0.0
sg7
F0.12214387816211537
sg8
I00
sg9
F0.9711076348324642
sg10
g41
sg12
F0.0
sS'frac_expenses'
p1650
F1.0
sS'frac_deferral_payments'
p1651
F0.5
sS'frac_exercised_stock_options'
p1652
F0.5
sg16
g46
(g50
S'\xabW\x82\x9a\xb3 \xc1?'
p1653
tp1654
Rp1655
sg17
F0.0
sg18
g41
sg19
F0.0
sg20
F0.7344194278419311
sS'frac_loan_advances'
p1656
F0.0
sS'frac_deferred_income'
p1657
F0.9948309449953562
sS'frac_restricted_stock_deferred'
p1658
F1.0
sg24
F0.0
sg25
F0.0
sg26
F0.0
sg27
g46
(g50
S'\xf8\xe0\x83\x0f>\xf8\xb0?'
p1659
tp1660
Rp1661
sg28
g46
(g50
S'\t*\x1c\xdd2\xe7\x8a?'
p1662
tp1663
Rp1664
sg29
F0.1499748016029313
sg30
F0.0
sg31
I27942
sg32
F0.0
sg33
F0.0
sS'frac_salary'
p1665
F0.0
sS'frac_restricted_stock'
p1666
F0.0
sS'frac_long_term_incentive'
p1667
F0.0
sg37
F0.0
sS'frac_other'
p1668
F0.0
ssS'STABLER FRANK'
p1669
(dp1670
g3
g41
sg4
F0.1036542684938879
sg5
F0.015698010104923967
sS'frac_bonus'
p1671
F0.08652860192892582
sg7
F0.0721882472252943
sg8
I00
sg9
F1.0
sg10
S'frank.stabler@enron.com'
p1672
sg12
F0.0
sS'frac_expenses'
p1673
F0.01484955763353047
sS'frac_deferral_payments'
p1674
F0.5
sS'frac_exercised_stock_options'
p1675
F0.5
sg16
g46
(g50
S'\xabW\x82\x9a\xb3 \xc1?'
p1676
tp1677
Rp1678
sg17
F0.0
sg18
g41
sg19
F0.03437068672356198
sg20
F0.0
sS'frac_loan_advances'
p1679
F0.0
sS'frac_deferred_income'
p1680
F1.0
sS'frac_restricted_stock_deferred'
p1681
F1.0
sg24
F0.0
sg25
F0.0625
sg26
I511734
sg27
g46
(g50
S'\xf8\xe0\x83\x0f>\xf8\xb0?'
p1682
tp1683
Rp1684
sg28
g46
(g50
S'\t*\x1c\xdd2\xe7\x8a?'
p1685
tp1686
Rp1687
sg29
F0.1794420697143368
sg30
F0.21552330781870638
sg31
I1112087
sg32
F0.0
sg33
F0.0
sS'frac_salary'
p1688
F0.22718769522740756
sS'frac_restricted_stock'
p1689
F0.3333333333333333
sS'frac_long_term_incentive'
p1690
F0.0
sg37
F0.0
sS'frac_other'
p1691
F0.3201826835490389
ssS'SKILLING JEFFREY K'
p1692
(dp1693
g3
I3627
sg4
F0.1036542684938879
sg5
F0.015698010104923967
sS'frac_bonus'
p1694
F0.12412546181786129
sg7
F0.1282375209277724
sg8
I01
sg9
F1.0
sg10
S'jeff.skilling@enron.com'
p1695
sg12
F0.37314636627347664
sS'frac_expenses'
p1696
F0.003378666306717852
sS'frac_deferral_payments'
p1697
F0.5
sS'frac_exercised_stock_options'
p1698
F0.5
sg16
I0
sg17
F0.0
sg18
I108
sg19
F0.00213538404334708
sg20
F0.0
sS'frac_loan_advances'
p1699
F0.0
sS'frac_deferred_income'
p1700
F1.0
sS'frac_restricted_stock_deferred'
p1701
F1.0
sg24
F0.11163320017129214
sg25
F0.7
sg26
I26093672
sg27
I0
sg28
I0
sg29
F0.5440551591529837
sg30
F1.0
sg31
I8682716
sg32
F0.2777777777777778
sg33
F0.5604339348249979
sS'frac_salary'
p1702
F0.135012422487355
sS'frac_restricted_stock'
p1703
F0.0
sS'frac_long_term_incentive'
p1704
F0.0394777473944475
sg37
F0.5623555598457791
sS'frac_other'
p1705
F0.002547820290333117
ssS'BLAKE JR. NORMAN P'
p1706
(dp1707
g3
g41
sg4
F0.1036542684938879
sg5
F0.015698010104923967
sS'frac_bonus'
p1708
F0.0
sg7
F0.005590939094171697
sg8
I00
sg9
F0.9675309740422431
sg10
g41
sg12
F0.0
sS'frac_expenses'
p1709
F1.0
sS'frac_deferral_payments'
p1710
F0.5
sS'frac_exercised_stock_options'
p1711
F0.5
sg16
g46
(g50
S'\xabW\x82\x9a\xb3 \xc1?'
p1712
tp1713
Rp1714
sg17
F0.0
sg18
g41
sg19
F0.0
sg20
F0.8253351128648523
sS'frac_loan_advances'
p1715
F0.0
sS'frac_deferred_income'
p1716
F0.8730933843269874
sS'frac_restricted_stock_deferred'
p1717
F1.0
sg24
F0.0
sg25
F0.0
sg26
F0.0
sg27
g46
(g50
S'\xf8\xe0\x83\x0f>\xf8\xb0?'
p1718
tp1719
Rp1720
sg28
g46
(g50
S'\t*\x1c\xdd2\xe7\x8a?'
p1721
tp1722
Rp1723
sg29
F0.1499748016029313
sg30
F0.0
sg31
I1279
sg32
F0.0
sg33
F0.0
sS'frac_salary'
p1724
F0.0
sS'frac_restricted_stock'
p1725
F0.0
sS'frac_long_term_incentive'
p1726
F0.0
sg37
F0.0
sS'frac_other'
p1727
F0.0
ssS'SHERRICK JEFFREY B'
p1728
(dp1729
g3
I613
sg4
F0.1036542684938879
sg5
F0.015698010104923967
sS'frac_bonus'
p1730
F0.0
sg7
F0.0
sg8
I00
sg9
F1.0
sg10
S'jeffrey.sherrick@enron.com'
p1731
sg12
F0.0
sS'frac_expenses'
p1732
F0.0
sS'frac_deferral_payments'
p1733
F0.5
sS'frac_exercised_stock_options'
p1734
F0.5
sg16
I0
sg17
F0.0
sg18
I25
sg19
F0.0
sg20
F0.0
sS'frac_loan_advances'
p1735
F0.0
sS'frac_deferred_income'
p1736
F1.0
sS'frac_restricted_stock_deferred'
p1737
F1.0
sg24
F0.29272673631599044
sg25
F0.0
sg26
I1832468
sg27
I0
sg28
I0
sg29
F0.17335351278093103
sg30
F0.0
sg31
F0.0
sg32
F0.72
sg33
F0.04152943556238337
sS'frac_salary'
p1738
F0.0
sS'frac_restricted_stock'
p1739
F0.0
sS'frac_long_term_incentive'
p1740
F0.0
sg37
F0.949972189143687
sS'frac_other'
p1741
F0.0
ssS'PRENTICE JAMES'
p1742
(dp1743
g3
g41
sg4
F0.1036542684938879
sg5
F0.1021286501702277
sS'frac_bonus'
p1744
F0.0
sg7
F0.0
sg8
I00
sg9
F1.0
sg10
S'james.prentice@enron.com'
p1745
sg12
F0.0
sS'frac_expenses'
p1746
F0.0
sS'frac_deferral_payments'
p1747
F1.0
sS'frac_exercised_stock_options'
p1748
F0.5
sg16
g46
(g50
S'\xabW\x82\x9a\xb3 \xc1?'
p1749
tp1750
Rp1751
sg17
F0.0
sg18
g41
sg19
F0.0
sg20
F0.0
sS'frac_loan_advances'
p1752
F0.0
sS'frac_deferred_income'
p1753
F1.0
sS'frac_restricted_stock_deferred'
p1754
F1.0
sg24
F0.0
sg25
F0.0
sg26
I1095040
sg27
g46
(g50
S'\xf8\xe0\x83\x0f>\xf8\xb0?'
p1755
tp1756
Rp1757
sg28
g46
(g50
S'\t*\x1c\xdd2\xe7\x8a?'
p1758
tp1759
Rp1760
sg29
F0.16199868664296083
sg30
F0.0
sg31
I564348
sg32
F0.0
sg33
F0.025801242934747674
sS'frac_salary'
p1761
F0.0
sS'frac_restricted_stock'
p1762
F0.0
sS'frac_long_term_incentive'
p1763
F0.0
sg37
F0.0
sS'frac_other'
p1764
F0.0
ssS'GRAY RODNEY'
p1765
(dp1766
g3
g41
sg4
F0.1036542684938879
sg5
F0.030030676209014794
sS'frac_bonus'
p1767
F0.0
sg7
F0.0
sg8
I00
sg9
F1.0
sg10
g41
sg12
F0.0710581459212187
sS'frac_expenses'
p1768
F0.0
sS'frac_deferral_payments'
p1769
F0.5408077212211487
sS'frac_exercised_stock_options'
p1770
F0.5
sg16
g46
(g50
S'\xabW\x82\x9a\xb3 \xc1?'
p1771
tp1772
Rp1773
sg17
F0.0
sg18
g41
sg19
F0.06571919014483874
sg20
F0.0
sS'frac_loan_advances'
p1774
F0.0
sS'frac_deferred_income'
p1775
F1.0
sS'frac_restricted_stock_deferred'
p1776
F1.0
sg24
F0.0
sg25
F0.0
sg26
F0.0
sg27
g46
(g50
S'\xf8\xe0\x83\x0f>\xf8\xb0?'
p1777
tp1778
Rp1779
sg28
g46
(g50
S'\t*\x1c\xdd2\xe7\x8a?'
p1780
tp1781
Rp1782
sg29
F0.1499748016029313
sg30
F0.005952713051334614
sg31
I1146658
sg32
F0.0
sg33
F0.0
sS'frac_salary'
p1783
F0.006085697601626082
sS'frac_restricted_stock'
p1784
F0.0
sS'frac_long_term_incentive'
p1785
F0.056925743187976156
sg37
F0.0
sS'frac_other'
p1786
F0.5937541969793958
ssS'PICKERING MARK R'
p1787
(dp1788
g3
I898
sg4
F0.1036542684938879
sg5
F0.015698010104923967
sS'frac_bonus'
p1789
F0.041636126315182195
sg7
F0.1383659070741335
sg8
I00
sg9
F1.0
sg10
S'mark.pickering@enron.com'
p1790
sg12
F0.0
sS'frac_expenses'
p1791
F0.022826298595937086
sS'frac_deferral_payments'
p1792
F0.5
sS'frac_exercised_stock_options'
p1793
F1.0
sg16
I0
sg17
F0.004906470407850353
sg18
I67
sg19
F0.0
sg20
F0.0
sS'frac_loan_advances'
p1794
F0.36642152160728647
sS'frac_deferred_income'
p1795
F1.0
sS'frac_restricted_stock_deferred'
p1796
F1.0
sg24
F0.03586575368431029
sg25
F0.0375
sg26
I28798
sg27
I0
sg28
I0
sg29
F0.1499748016029313
sg30
F0.5894553739995573
sg31
I1386690
sg32
F0.0
sg33
F0.0008384091664981969
sS'frac_salary'
p1797
F0.4983114583394834
sS'frac_restricted_stock'
p1798
F0.0
sS'frac_long_term_incentive'
p1799
F0.0
sg37
F0.809762859749354
sS'frac_other'
p1800
F0.0
ssS'THE TRAVEL AGENCY IN THE PARK'
p1801
(dp1802
g3
g41
sg4
F0.1036542684938879
sg5
F0.015698010104923967
sS'frac_bonus'
p1803
F0.0
sg7
F0.0
sg8
I00
sg9
F1.0
sg10
g41
sg12
F0.0
sS'frac_expenses'
p1804
F0.0
sS'frac_deferral_payments'
p1805
F0.5
sS'frac_exercised_stock_options'
p1806
F0.5
sg16
g46
(g50
S'\xabW\x82\x9a\xb3 \xc1?'
p1807
tp1808
Rp1809
sg17
F0.0
sg18
g41
sg19
F0.03495226564324221
sg20
F0.0
sS'frac_loan_advances'
p1810
F0.0
sS'frac_deferred_income'
p1811
F1.0
sS'frac_restricted_stock_deferred'
p1812
F1.0
sg24
F0.0
sg25
F0.0
sg26
F0.0
sg27
g46
(g50
S'\xf8\xe0\x83\x0f>\xf8\xb0?'
p1813
tp1814
Rp1815
sg28
g46
(g50
S'\t*\x1c\xdd2\xe7\x8a?'
p1816
tp1817
Rp1818
sg29
F0.1499748016029313
sg30
F0.0
sg31
I362096
sg32
F0.0
sg33
F0.0
sS'frac_salary'
p1819
F0.0
sS'frac_restricted_stock'
p1820
F0.0
sS'frac_long_term_incentive'
p1821
F0.0
sg37
F0.0
sS'frac_other'
p1822
F1.0
ssS'NOLES JAMES L'
p1823
(dp1824
g3
g41
sg4
F0.0981707490342833
sg5
F0.13429854399041885
sS'frac_bonus'
p1825
F0.0
sg7
F0.0
sg8
I00
sg9
F1.0
sg10
g41
sg12
F0.0
sS'frac_expenses'
p1826
F0.0
sS'frac_deferral_payments'
p1827
F1.0
sS'frac_exercised_stock_options'
p1828
F0.5
sg16
g46
(g50
S'\xabW\x82\x9a\xb3 \xc1?'
p1829
tp1830
Rp1831
sg17
F0.0
sg18
g41
sg19
F0.0
sg20
F0.0
sS'frac_loan_advances'
p1832
F0.0
sS'frac_deferred_income'
p1833
F1.0
sS'frac_restricted_stock_deferred'
p1834
F0.6666666666666666
sg24
F0.0
sg25
F0.0
sg26
I368705
sg27
g46
(g50
S'\xf8\xe0\x83\x0f>\xf8\xb0?'
p1835
tp1836
Rp1837
sg28
g46
(g50
S'\t*\x1c\xdd2\xe7\x8a?'
p1838
tp1839
Rp1840
sg29
F0.1766508405070452
sg30
F0.0
sg31
I774401
sg32
F0.0
sg33
F0.0
sS'frac_salary'
p1841
F0.0
sS'frac_restricted_stock'
p1842
F0.3333333333333333
sS'frac_long_term_incentive'
p1843
F0.0
sg37
F0.0
sS'frac_other'
p1844
F0.0
ssS'KEAN STEVEN J'
p1845
(dp1846
g3
I12754
sg4
F0.1036542684938879
sg5
F0.015698010104923967
sS'frac_bonus'
p1847
F0.11013003937384859
sg7
F0.18339067069412449
sg8
I00
sg9
F1.0
sg10
S'steven.kean@enron.com'
p1848
sg12
F0.058304119730230725
sS'frac_expenses'
p1849
F0.02400713696308258
sS'frac_deferral_payments'
p1850
F0.5
sS'frac_exercised_stock_options'
p1851
F0.5
sg16
I0
sg17
F0.0
sg18
I6759
sg19
F0.00011882550209566293
sg20
F0.0
sS'frac_loan_advances'
p1852
F0.0
sS'frac_deferred_income'
p1853
F1.0
sS'frac_restricted_stock_deferred'
p1854
F1.0
sg24
F0.05050564028306514
sg25
F0.125
sg26
I6153642
sg27
I0
sg28
I0
sg29
F0.3878850989946899
sg30
F0.3638560982238148
sg31
I1747522
sg32
F0.05725699067909454
sg33
F0.05886879569065025
sS'frac_salary'
p1855
F0.24408232527697998
sS'frac_restricted_stock'
p1856
F0.0
sS'frac_long_term_incentive'
p1857
F0.030648225471707907
sg37
F0.28499579617683546
sS'frac_other'
p1858
F0.0007044260386993697
ssS'FOWLER PEGGY'
p1859
(dp1860
g3
I517
sg4
F0.1036542684938879
sg5
F0.015698010104923967
sS'frac_bonus'
p1861
F0.0
sg7
F0.0
sg8
I00
sg9
F1.0
sg10
S'kulvinder.fowler@enron.com'
p1862
sg12
F0.0
sS'frac_expenses'
p1863
F0.0
sS'frac_deferral_payments'
p1864
F0.5
sS'frac_exercised_stock_options'
p1865
F0.5
sg16
I0
sg17
F0.0
sg18
I36
sg19
F0.0
sg20
F0.0
sS'frac_loan_advances'
p1866
F0.0
sS'frac_deferred_income'
p1867
F1.0
sS'frac_restricted_stock_deferred'
p1868
F1.0
sg24
F0.0
sg25
F0.0
sg26
I1884748
sg27
I0
sg28
I0
sg29
F0.1822311683441797
sg30
F0.0
sg31
F0.0
sg32
F0.0
sg33
F0.03856303691026629
sS'frac_salary'
p1869
F0.0
sS'frac_restricted_stock'
p1870
F0.0
sS'frac_long_term_incentive'
p1871
F0.0
sg37
F0.019320228921475332
sS'frac_other'
p1872
F0.0
ssS'WASAFF GEORGE'
p1873
(dp1874
g3
I400
sg4
F0.1036542684938879
sg5
F0.14301254768749166
sS'frac_bonus'
p1875
F0.060467970810634875
sg7
F0.0
sg8
I00
sg9
F0.8335443070483673
sg10
S'george.wasaff@enron.com'
p1876
sg12
F0.03886941315348715
sS'frac_expenses'
p1877
F0.0
sS'frac_deferral_payments'
p1878
F0.9018286051266682
sS'frac_exercised_stock_options'
p1879
F0.5
sg16
I0
sg17
F0.0
sg18
I30
sg19
F0.00013755186067125887
sg20
F0.0
sS'frac_loan_advances'
p1880
F0.0
sS'frac_deferred_income'
p1881
F0.9991955523504019
sS'frac_restricted_stock_deferred'
p1882
F1.0
sg24
F0.2530585106382979
sg25
F0.040625
sg26
I2056427
sg27
I0
sg28
I0
sg29
F0.1723266896170166
sg30
F0.23396546976489707
sg31
I1034395
sg32
F0.23333333333333334
sg33
F0.0485688060317481
sS'frac_salary'
p1883
F0.2651518607328351
sS'frac_restricted_stock'
p1884
F0.0
sS'frac_long_term_incentive'
p1885
F0.03451837275107346
sg37
F0.8415360411899314
sS'frac_other'
p1886
F0.0013776168678309544
ssS'WHITE JR THOMAS E'
p1887
(dp1888
g3
g41
sg4
F0.1036542684938879
sg5
F0.015698010104923967
sS'frac_bonus'
p1889
F0.04477173058361968
sg7
F0.3556213198812745
sg8
I00
sg9
F1.0
sg10
S'thomas.white@enron.com'
p1890
sg12
F0.0
sS'frac_expenses'
p1891
F0.042056826059692125
sS'frac_deferral_payments'
p1892
F0.5
sS'frac_exercised_stock_options'
p1893
F0.5
sg16
g46
(g50
S'\xabW\x82\x9a\xb3 \xc1?'
p1894
tp1895
Rp1896
sg17
F0.0
sg18
g41
sg19
F0.1047771616419696
sg20
F0.0
sS'frac_loan_advances'
p1897
F0.0
sS'frac_deferred_income'
p1898
F1.0
sS'frac_restricted_stock_deferred'
p1899
F1.0
sg24
F0.0
sg25
F0.05625
sg26
I15144123
sg27
g46
(g50
S'\xf8\xe0\x83\x0f>\xf8\xb0?'
p1900
tp1901
Rp1902
sg28
g46
(g50
S'\t*\x1c\xdd2\xe7\x8a?'
p1903
tp1904
Rp1905
sg29
F0.9473332771321552
sg30
F0.2857509237278832
sg31
I1934359
sg32
F0.0
sg33
F0.0377615727132898
sS'frac_salary'
p1906
F0.1731728842569184
sS'frac_restricted_stock'
p1907
F0.0
sS'frac_long_term_incentive'
p1908
F0.0
sg37
F0.0
sS'frac_other'
p1909
F0.5611486802604894
ssS'CHRISTODOULOU DIOMEDES'
p1910
(dp1911
g3
g41
sg4
F0.1036542684938879
sg5
F0.015698010104923967
sS'frac_bonus'
p1912
F0.0
sg7
F0.0
sg8
I00
sg9
F1.0
sg10
S'diomedes.christodoulou@enron.com'
p1913
sg12
F0.0
sS'frac_expenses'
p1914
F0.0
sS'frac_deferral_payments'
p1915
F0.5
sS'frac_exercised_stock_options'
p1916
F0.5
sg16
g46
(g50
S'\xabW\x82\x9a\xb3 \xc1?'
p1917
tp1918
Rp1919
sg17
F0.0
sg18
g41
sg19
F0.0
sg20
F0.0
sS'frac_loan_advances'
p1920
F0.0
sS'frac_deferred_income'
p1921
F1.0
sS'frac_restricted_stock_deferred'
p1922
F1.0
sg24
F0.0
sg25
F0.0
sg26
I6077885
sg27
g46
(g50
S'\xf8\xe0\x83\x0f>\xf8\xb0?'
p1923
tp1924
Rp1925
sg28
g46
(g50
S'\t*\x1c\xdd2\xe7\x8a?'
p1926
tp1927
Rp1928
sg29
F0.20472085289433764
sg30
F0.0
sg31
F0.0
sg32
F0.0
sg33
F0.14926917668091752
sS'frac_salary'
p1929
F0.0
sS'frac_restricted_stock'
p1930
F0.0
sS'frac_long_term_incentive'
p1931
F0.0
sg37
F0.0
sS'frac_other'
p1932
F0.0
ssS'ALLEN PHILLIP K'
p1933
(dp1934
g3
I2902
sg4
F0.09634567351381695
sg5
F0.45519895121977366
sS'frac_bonus'
p1935
F0.17917462938161163
sg7
F0.06062169144485778
sg8
I00
sg9
F0.12080033420975886
sg10
S'phillip.allen@enron.com'
p1936
sg12
F0.05923795738124325
sS'frac_expenses'
p1937
F0.0030924694755780093
sS'frac_deferral_payments'
p1938
F0.8199636654906006
sS'frac_exercised_stock_options'
p1939
F1.0
sg16
I0
sg17
F0.0
sg18
I2195
sg19
F1.4672198471600946e-05
sg20
F0.0
sS'frac_loan_advances'
p1940
F0.0
sS'frac_deferred_income'
p1941
F0.9990199129528106
sS'frac_restricted_stock_deferred'
p1942
F0.6666666666666666
sg24
F0.07451757408683667
sg25
F0.521875
sg26
I1729541
sg27
I0
sg28
I0
sg29
F0.15723183630900145
sg30
F0.18173547457026182
sg31
I4484442
sg32
F0.029612756264236904
sg33
F0.05035290743226814
sS'frac_salary'
p1943
F0.04750733009542513
sS'frac_restricted_stock'
p1944
F0.0
sS'frac_long_term_incentive'
p1945
F0.012134458665300791
sg37
F0.4842833081264874
sS'frac_other'
p1946
F3.38949639665314e-05
ssS'SHARP VICTORIA T'
p1947
(dp1948
g3
I3136
sg4
F0.1036542684938879
sg5
F0.04440913455721657
sS'frac_bonus'
p1949
F0.07324579403505589
sg7
F0.5085481480833877
sg8
I00
sg9
F1.0
sg10
S'vicki.sharp@enron.com'
p1950
sg12
F0.08204516859024914
sS'frac_expenses'
p1951
F0.07379396655018582
sS'frac_deferral_payments'
p1952
F0.5594569273541383
sS'frac_exercised_stock_options'
p1953
F0.5
sg16
I0
sg17
F0.0
sg18
I136
sg19
F0.00023176281927838073
sg20
F0.0
sS'frac_loan_advances'
p1954
F0.0
sS'frac_deferred_income'
p1955
F1.0
sS'frac_restricted_stock_deferred'
p1956
F1.0
sg24
F0.0352122231871472
sg25
F0.075
sg26
I494136
sg27
I0
sg28
I0
sg29
F0.16224364546638456
sg30
F0.2233018794915312
sg31
I1576511
sg32
F0.04411764705882353
sg33
F0.008183005057821643
sS'frac_salary'
p1957
F0.16604457806107298
sS'frac_restricted_stock'
p1958
F0.0
sS'frac_long_term_incentive'
p1959
F0.04780625783969794
sg37
F0.7889559642506889
sS'frac_other'
p1960
F0.00152298334740449
ssS'JAEDICKE ROBERT'
p1961
(dp1962
g3
g41
sg4
F0.10109721422411819
sg5
F0.015698010104923967
sS'frac_bonus'
p1963
F0.0
sg7
F0.0
sg8
I00
sg9
F0.9928660826746826
sg10
g41
sg12
F0.0
sS'frac_expenses'
p1964
F0.0
sS'frac_deferral_payments'
p1965
F0.5
sS'frac_exercised_stock_options'
p1966
F1.0
sg16
g46
(g50
S'\xabW\x82\x9a\xb3 \xc1?'
p1967
tp1968
Rp1969
sg17
F0.0
sg18
g41
sg19
F0.0
sg20
F0.7888208669413335
sS'frac_loan_advances'
p1970
F0.0
sS'frac_deferred_income'
p1971
F0.99957417730624
sS'frac_restricted_stock_deferred'
p1972
F0.6666666666666666
sg24
F0.0
sg25
F0.0
sg26
I431750
sg27
g46
(g50
S'\xf8\xe0\x83\x0f>\xf8\xb0?'
p1973
tp1974
Rp1975
sg28
g46
(g50
S'\t*\x1c\xdd2\xe7\x8a?'
p1976
tp1977
Rp1978
sg29
F0.15251381650683882
sg30
F0.0
sg31
I83750
sg32
F0.0
sg33
F0.012569732538217809
sS'frac_salary'
p1979
F0.0
sS'frac_restricted_stock'
p1980
F0.0
sS'frac_long_term_incentive'
p1981
F0.0
sg37
F0.0
sS'frac_other'
p1982
F0.0
ssS'WINOKUR JR. HERBERT S'
p1983
(dp1984
g3
g41
sg4
F0.1036542684938879
sg5
F0.015698010104923967
sS'frac_bonus'
p1985
F0.0
sg7
F0.0061766981548589586
sg8
I00
sg9
F0.9928660826746826
sg10
g41
sg12
F0.0
sS'frac_expenses'
p1986
F0.016625094126506024
sS'frac_deferral_payments'
p1987
F0.5
sS'frac_exercised_stock_options'
p1988
F0.5
sg16
g46
(g50
S'\xabW\x82\x9a\xb3 \xc1?'
p1989
tp1990
Rp1991
sg17
F0.0
sg18
g41
sg19
F0.0
sg20
F0.7875805141298671
sS'frac_loan_advances'
p1992
F0.0
sS'frac_deferred_income'
p1993
F0.9995803999129046
sS'frac_restricted_stock_deferred'
p1994
F1.0
sg24
F0.0
sg25
F0.0
sg26
F0.0
sg27
g46
(g50
S'\xf8\xe0\x83\x0f>\xf8\xb0?'
p1995
tp1996
Rp1997
sg28
g46
(g50
S'\t*\x1c\xdd2\xe7\x8a?'
p1998
tp1999
Rp2000
sg29
F0.1499748016029313
sg30
F0.0
sg31
I84992
sg32
F0.0
sg33
F0.0
sS'frac_salary'
p2001
F0.0
sS'frac_restricted_stock'
p2002
F0.0
sS'frac_long_term_incentive'
p2003
F0.0
sg37
F0.0
sS'frac_other'
p2004
F0.0
ssS'BROWN MICHAEL'
p2005
(dp2006
g3
I1486
sg4
F0.1036542684938879
sg5
F0.015698010104923967
sS'frac_bonus'
p2007
F0.0
sg7
F0.21545442226234138
sg8
I00
sg9
F1.0
sg10
S'michael.brown@enron.com'
p2008
sg12
F0.0
sS'frac_expenses'
p2009
F1.0
sS'frac_deferral_payments'
p2010
F0.5
sS'frac_exercised_stock_options'
p2011
F0.5
sg16
I0
sg17
F0.0
sg18
I41
sg19
F0.0
sg20
F0.0
sS'frac_loan_advances'
p2012
F0.0
sS'frac_deferred_income'
p2013
F1.0
sS'frac_restricted_stock_deferred'
p2014
F1.0
sg24
F0.04025156782451819
sg25
F0.0
sg26
F0.0
sg27
I0
sg28
I0
sg29
F0.1499748016029313
sg30
F0.0
sg31
I49288
sg32
F0.024390243902439025
sg33
F0.0
sS'frac_salary'
p2015
F0.0
sS'frac_restricted_stock'
p2016
F0.0
sS'frac_long_term_incentive'
p2017
F0.0
sg37
F0.5115271134709616
sS'frac_other'
p2018
F0.0
ssS'BADUM JAMES P'
p2019
(dp2020
g3
g41
sg4
F0.1036542684938879
sg5
F0.04310903301789267
sS'frac_bonus'
p2021
F0.0
sg7
F0.01523847825041637
sg8
I00
sg9
F1.0
sg10
g41
sg12
F0.0
sS'frac_expenses'
p2022
F0.019104929137483146
sS'frac_deferral_payments'
p2023
F0.9904475354312584
sS'frac_exercised_stock_options'
p2024
F1.0
sg16
g46
(g50
S'\xabW\x82\x9a\xb3 \xc1?'
p2025
tp2026
Rp2027
sg17
F0.0
sg18
g41
sg19
F0.0
sg20
F0.0
sS'frac_loan_advances'
p2028
F0.0
sS'frac_deferred_income'
p2029
F1.0
sS'frac_restricted_stock_deferred'
p2030
F1.0
sg24
F0.0
sg25
F0.0
sg26
I257817
sg27
g46
(g50
S'\xf8\xe0\x83\x0f>\xf8\xb0?'
p2031
tp2032
Rp2033
sg28
g46
(g50
S'\t*\x1c\xdd2\xe7\x8a?'
p2034
tp2035
Rp2036
sg29
F0.1499748016029313
sg30
F0.0
sg31
I182466
sg32
F0.0
sg33
F0.007505942637650726
sS'frac_salary'
p2037
F0.0
sS'frac_restricted_stock'
p2038
F0.0
sS'frac_long_term_incentive'
p2039
F0.0
sg37
F0.0
sS'frac_other'
p2040
F0.0
ssS'HUGHES JAMES A'
p2041
(dp2042
g3
I719
sg4
F0.1036542684938879
sg5
F0.015698010104923967
sS'frac_bonus'
p2043
F0.0
sg7
F0.0
sg8
I00
sg9
F1.0
sg10
S'james.hughes@enron.com'
p2044
sg12
F0.0
sS'frac_expenses'
p2045
F0.0
sS'frac_deferral_payments'
p2046
F0.5
sS'frac_exercised_stock_options'
p2047
F0.5
sg16
I0
sg17
F0.0
sg18
I34
sg19
F0.0
sg20
F0.0
sS'frac_loan_advances'
p2048
F0.0
sS'frac_deferred_income'
p2049
F1.0
sS'frac_restricted_stock_deferred'
p2050
F1.0
sg24
F0.22397389992010178
sg25
F0.0
sg26
I1118394
sg27
I0
sg28
I0
sg29
F0.17090213946829078
sg30
F0.0
sg31
F0.0
sg32
F0.14705882352941177
sg33
F0.02197966576826438
sS'frac_salary'
p2051
F0.0
sS'frac_restricted_stock'
p2052
F0.0
sS'frac_long_term_incentive'
p2053
F0.0
sg37
F0.818256031928403
sS'frac_other'
p2054
F0.0
ssS'REYNOLDS LAWRENCE'
p2055
(dp2056
g3
g41
sg4
F0.09552003720785657
sg5
F0.023564627558967086
sS'frac_bonus'
p2057
F0.048787544626824685
sg7
F0.03675856672626255
sg8
I00
sg9
F0.9429286613974602
sg10
g41
sg12
F0.030366729026161835
sS'frac_expenses'
p2058
F0.021316940237023893
sS'frac_deferral_payments'
p2059
F0.56510551999493
sS'frac_exercised_stock_options'
p2060
F0.5
sg16
g46
(g50
S'\xabW\x82\x9a\xb3 \xc1?'
p2061
tp2062
Rp2063
sg17
F0.0
sg18
g41
sg19
F0.0195035989841047
sg20
F0.0
sS'frac_loan_advances'
p2064
F0.0
sS'frac_deferred_income'
p2065
F0.9992767571967317
sS'frac_restricted_stock_deferred'
p2066
F0.6666666666666666
sg24
F0.0
sg25
F0.0125
sg26
I4221891
sg27
g46
(g50
S'\xf8\xe0\x83\x0f>\xf8\xb0?'
p2067
tp2068
Rp2069
sg28
g46
(g50
S'\t*\x1c\xdd2\xe7\x8a?'
p2070
tp2071
Rp2072
sg29
F0.1615768323081225
sg30
F0.06875001124851295
sg31
I394475
sg32
F0.0
sg33
F0.12113152106369837
sS'frac_salary'
p2073
F0.20430670258004482
sS'frac_restricted_stock'
p2074
F0.0
sS'frac_long_term_incentive'
p2075
F0.07071430418167864
sg37
F0.0
sS'frac_other'
p2076
F0.5122048292033715
ssS'DIMICHELE RICHARD G'
p2077
(dp2078
g3
g41
sg4
F0.1036542684938879
sg5
F0.015698010104923967
sS'frac_bonus'
p2079
F0.08126790338397621
sg7
F0.15654629463680753
sg8
I00
sg9
F1.0
sg10
S'richard.dimichele@enron.com'
p2080
sg12
F0.13504439081329195
sS'frac_expenses'
p2081
F0.015122346505776025
sS'frac_deferral_payments'
p2082
F0.5
sS'frac_exercised_stock_options'
p2083
F0.5
sg16
g46
(g50
S'\xabW\x82\x9a\xb3 \xc1?'
p2084
tp2085
Rp2086
sg17
F0.0
sg18
g41
sg19
F0.036167837981090044
sg20
F0.0
sS'frac_loan_advances'
p2087
F0.0
sS'frac_deferred_income'
p2088
F1.0
sS'frac_restricted_stock_deferred'
p2089
F1.0
sg24
F0.0
sg25
F0.125
sg26
I8317782
sg27
g46
(g50
S'\xf8\xe0\x83\x0f>\xf8\xb0?'
p2090
tp2091
Rp2092
sg28
g46
(g50
S'\t*\x1c\xdd2\xe7\x8a?'
p2093
tp2094
Rp2095
sg29
F0.15723183630900145
sg30
F0.23647793761664707
sg31
I2368151
sg32
F0.0
sg33
F0.23849025910505717
sS'frac_salary'
p2096
F0.11706055105016636
sS'frac_restricted_stock'
p2097
F0.0
sS'frac_long_term_incentive'
p2098
F0.0523836676570504
sg37
F0.0
sS'frac_other'
p2099
F0.1582200628253857
ssS'BHATNAGAR SANJAY'
p2100
(dp2101
g3
I523
sg4
F1.0
sg5
F0.015698010104923967
sS'frac_bonus'
p2102
F0.0
sg7
F0.0
sg8
I00
sg9
F1.0
sg10
S'sanjay.bhatnagar@enron.com'
p2103
sg12
F0.0
sS'frac_expenses'
p2104
F0.0
sS'frac_deferral_payments'
p2105
F0.5
sS'frac_exercised_stock_options'
p2106
F0.5
sg16
I0
sg17
F0.0
sg18
I29
sg19
F0.013307684013742058
sg20
F1.0
sS'frac_loan_advances'
p2107
F0.0
sS'frac_deferred_income'
p2108
F1.0
sS'frac_restricted_stock_deferred'
p2109
F1.0
sg24
F0.0
sg25
F0.0
sS'total_stock_value'
p2110
F15456290.0
sg27
I0
sg28
I0
sg29
F0.0
sg30
F0.0
sg31
I15456290
sg32
F0.034482758620689655
sg33
F0.07582569241103163
sS'frac_salary'
p2111
F0.0
sS'frac_restricted_stock'
p2112
F0.0
sS'frac_long_term_incentive'
p2113
F0.0
sg37
F0.8842643436257116
sS'frac_other'
p2114
F0.00891960489871761
ssS'CARTER REBECCA C'
p2115
(dp2116
g3
I312
sg4
F0.08583317820394383
sg5
F0.015698010104923967
sS'frac_bonus'
p2117
F0.120899494720002
sg7
F0.0
sg8
I00
sg9
F0.9544022833101148
sg10
S'rebecca.carter@enron.com'
p2118
sg12
F0.014576029932557681
sS'frac_expenses'
p2119
F0.0
sS'frac_deferral_payments'
p2120
F0.5
sS'frac_exercised_stock_options'
p2121
F0.5
sg16
I0
sg17
F0.0
sg18
I15
sg19
F5.2124915622792834e-05
sg20
F0.0
sS'frac_loan_advances'
p2122
F0.0
sS'frac_deferred_income'
p2123
F0.9995226868193694
sS'frac_restricted_stock_deferred'
p2124
F1.0
sg24
F0.4276629841789416
sg25
F0.0375
sg26
F0.0
sg27
I0
sg28
I0
sg29
F0.1676701686449942
sg30
F0.23559695408267028
sg31
I477557
sg32
F0.4666666666666667
sg33
F0.0
sS'frac_salary'
p2125
F0.5783274174177383
sS'frac_restricted_stock'
p2126
F0.0
sS'frac_long_term_incentive'
p2127
F0.02803772548238741
sg37
F0.6274863580355571
sS'frac_other'
p2128
F0.0011307550721693955
ssS'BUCHANAN HAROLD G'
p2129
(dp2130
g3
I1088
sg4
F0.1036542684938879
sg5
F0.015698010104923967
sS'frac_bonus'
p2131
F0.09124213670991377
sg7
F0.00262280176427132
sg8
I00
sg9
F1.0
sg10
S'john.buchanan@enron.com'
p2132
sg12
F0.05923795738124325
sS'frac_expenses'
p2133
F0.000568916129436005
sS'frac_deferral_payments'
p2134
F0.5
sS'frac_exercised_stock_options'
p2135
F0.5
sg16
I0
sg17
F0.0
sg18
I125
sg19
F0.00011728106015128387
sg20
F0.0
sS'frac_loan_advances'
p2136
F0.0
sS'frac_deferred_income'
p2137
F1.0
sS'frac_restricted_stock_deferred'
p2138
F1.0
sg24
F0.0
sg25
F0.0625
sg26
I1014505
sg27
I0
sg28
I0
sg29
F0.16086038245362366
sg30
F0.22318579483792242
sg31
I1054637
sg32
F0.0
sg33
F0.024032105848123743
sS'frac_salary'
p2139
F0.24808063885672857
sS'frac_restricted_stock'
p2140
F0.0
sS'frac_long_term_incentive'
p2141
F0.05159716194855558
sg37
F0.021115518575851394
sS'frac_other'
p2142
F0.0011520551621079101
ssS'YEAP SOON'
p2143
(dp2144
g3
g41
sg4
F0.1036542684938879
sg5
F0.015698010104923967
sS'frac_bonus'
p2145
F0.0
sg7
F0.24084751467676155
sg8
I00
sg9
F1.0
sg10
g41
sg12
F0.0
sS'frac_expenses'
p2146
F1.0
sS'frac_deferral_payments'
p2147
F0.5
sS'frac_exercised_stock_options'
p2148
F1.0
sg16
g46
(g50
S'\xabW\x82\x9a\xb3 \xc1?'
p2149
tp2150
Rp2151
sg17
F0.0
sg18
g41
sg19
F0.0
sg20
F0.0
sS'frac_loan_advances'
p2152
F0.0
sS'frac_deferred_income'
p2153
F1.0
sS'frac_restricted_stock_deferred'
p2154
F1.0
sg24
F0.0
sg25
F0.0
sg26
I192758
sg27
g46
(g50
S'\xf8\xe0\x83\x0f>\xf8\xb0?'
p2155
tp2156
Rp2157
sg28
g46
(g50
S'\t*\x1c\xdd2\xe7\x8a?'
p2158
tp2159
Rp2160
sg29
F0.1499748016029313
sg30
F0.0
sg31
I55097
sg32
F0.0
sg33
F0.005611850618649192
sS'frac_salary'
p2161
F0.0
sS'frac_restricted_stock'
p2162
F0.0
sS'frac_long_term_incentive'
p2163
F0.0
sg37
F0.0
sS'frac_other'
p2164
F0.0
ssS'MURRAY JULIA H'
p2165
(dp2166
g3
I2192
sg4
F0.1036542684938879
sg5
F0.015698010104923967
sS'frac_bonus'
p2167
F0.0947826094094104
sg7
F0.251701542644571
sg8
I00
sg9
F1.0
sg10
S'julia.murray@enron.com'
p2168
sg12
F0.024293383220929467
sS'frac_expenses'
p2169
F0.07089439222648776
sS'frac_deferral_payments'
p2170
F0.5
sS'frac_exercised_stock_options'
p2171
F0.5
sg16
I0
sg17
F0.0
sg18
I45
sg19
F3.1854115102817845e-05
sg20
F0.0
sS'frac_loan_advances'
p2172
F0.0
sS'frac_deferred_income'
p2173
F1.0
sS'frac_restricted_stock_deferred'
p2174
F1.0
sg24
F0.023089280167727908
sg25
F0.05
sg26
I597461
sg27
I0
sg28
I0
sg29
F0.16131770802382378
sg30
F0.2063283233956471
sg31
I812194
sg32
F0.044444444444444446
sg33
F0.011659296693550416
sS'frac_salary'
p2175
F0.29780254035718556
sS'frac_restricted_stock'
p2176
F0.0
sS'frac_long_term_incentive'
p2177
F0.027476218875852495
sg37
F0.17999455060214803
sS'frac_other'
p2178
F0.0004063068675710483
ssS'GARLAND C KEVIN'
p2179
(dp2180
g3
I209
sg4
F0.1036542684938879
sg5
F0.015698010104923967
sS'frac_bonus'
p2181
F0.10443006958111947
sg7
F0.21159453233258874
sg8
I00
sg9
F1.0
sg10
S'kevin.garland@enron.com'
p2182
sg12
F0.0729392311707817
sS'frac_expenses'
p2183
F0.03090070725944784
sS'frac_deferral_payments'
p2184
F0.5
sS'frac_exercised_stock_options'
p2185
F0.5
sg16
I0
sg17
F0.0
sg18
I44
sg19
F0.00587023077534171
sg20
F0.0
sS'frac_loan_advances'
p2186
F0.0
sS'frac_deferred_income'
p2187
F1.0
sS'frac_restricted_stock_deferred'
p2188
F1.0
sg24
F0.22014659472666193
sg25
F0.10625
sg26
I896153
sg27
I0
sg28
I0
sg29
F0.16494107168276
sg30
F0.20872380671275256
sg31
I1566469
sg32
F0.6136363636363636
sg33
F0.01852331684658003
sS'frac_salary'
p2189
F0.15619945273147373
sS'frac_restricted_stock'
p2190
F0.0
sS'frac_long_term_incentive'
p2191
F0.04277284319184027
sg37
F0.8507001850371717
sS'frac_other'
p2192
F0.038822345032043404
ssS'DODSON KEITH'
p2193
(dp2194
g3
I176
sg4
F0.1036542684938879
sg5
F0.015698010104923967
sS'frac_bonus'
p2195
F0.04210722185236236
sg7
F0.12311431481489576
sg8
I00
sg9
F1.0
sg10
S'keith.dodson@enron.com'
p2196
sg12
F0.0
sS'frac_expenses'
p2197
F0.08802873029714854
sS'frac_deferral_payments'
p2198
F0.5
sS'frac_exercised_stock_options'
p2199
F0.5
sg16
I0
sg17
F0.0
sg18
I14
sg19
F7.47123790593364e-05
sg20
F0.0
sS'frac_loan_advances'
p2200
F0.0
sS'frac_deferred_income'
p2201
F1.0
sS'frac_restricted_stock_deferred'
p2202
F1.0
sg24
F0.261424081237911
sg25
F0.00875
sg26
F0.0
sg27
I0
sg28
I0
sg29
F0.1499748016029313
sg30
F0.19887640853879118
sg31
I319941
sg32
F0.21428571428571427
sg33
F0.0
sS'frac_salary'
p2203
F0.7286898101338501
sS'frac_restricted_stock'
p2204
F0.0
sS'frac_long_term_incentive'
p2205
F0.0
sg37
F0.6469861660079052
sS'frac_other'
p2206
F0.0024191960392697404
ssS'YEAGER F SCOTT'
p2207
(dp2208
g3
g41
sg4
F0.1036542684938879
sg5
F0.015698010104923967
sS'frac_bonus'
p2209
F0.0
sg7
F0.23582047796190816
sg8
I01
sg9
F1.0
sg10
S'scott.yeager@enron.com'
p2210
sg12
F0.0
sS'frac_expenses'
p2211
F0.14972800444074383
sS'frac_deferral_payments'
p2212
F0.5
sS'frac_exercised_stock_options'
p2213
F0.5
sg16
g46
(g50
S'\xabW\x82\x9a\xb3 \xc1?'
p2214
tp2215
Rp2216
sg17
F0.0
sg18
g41
sg19
F0.01428126160443
sg20
F0.0
sS'frac_loan_advances'
p2217
F0.0
sS'frac_deferred_income'
p2218
F1.0
sS'frac_restricted_stock_deferred'
p2219
F1.0
sg24
F0.0
sg25
F0.0
sg26
I11884758
sg27
g46
(g50
S'\xf8\xe0\x83\x0f>\xf8\xb0?'
p2220
tp2221
Rp2222
sg28
g46
(g50
S'\t*\x1c\xdd2\xe7\x8a?'
p2223
tp2224
Rp2225
sg29
F0.3559040949928896
sg30
F0.14254385570227615
sg31
I360300
sg32
F0.0
sg33
F0.24189062286016133
sS'frac_salary'
p2226
F0.4637816546068846
sS'frac_restricted_stock'
p2227
F0.0
sS'frac_long_term_incentive'
p2228
F0.0
sg37
F0.0
sS'frac_other'
p2229
F0.4106300305301138
ssS'HIRKO JOSEPH'
p2230
(dp2231
g3
g41
sg4
F0.1036542684938879
sg5
F0.017269189477279238
sS'frac_bonus'
p2232
F0.0
sg7
F0.34086805995724834
sg8
I01
sg9
F1.0
sg10
S'joe.hirko@enron.com'
p2233
sg12
F0.0
sS'frac_expenses'
p2234
F0.8560262588782892
sS'frac_deferral_payments'
p2235
F0.5563105836891967
sS'frac_exercised_stock_options'
p2236
F1.0
sg16
g46
(g50
S'\xabW\x82\x9a\xb3 \xc1?'
p2237
tp2238
Rp2239
sg17
F0.0
sg18
g41
sg19
F0.0002756828870716599
sg20
F0.0
sS'frac_loan_advances'
p2240
F0.0
sS'frac_deferred_income'
p2241
F1.0
sS'frac_restricted_stock_deferred'
p2242
F1.0
sg24
F0.0
sg25
F0.0
sg26
I30766064
sg27
g46
(g50
S'\xf8\xe0\x83\x0f>\xf8\xb0?'
p2243
tp2244
Rp2245
sg28
g46
(g50
S'\t*\x1c\xdd2\xe7\x8a?'
p2246
tp2247
Rp2248
sg29
F0.1499748016029313
sg30
F0.0
sg31
I91093
sg32
F0.0
sg33
F0.8957063016414397
sS'frac_salary'
p2249
F0.0
sS'frac_restricted_stock'
p2250
F0.0
sS'frac_long_term_incentive'
p2251
F0.0
sg37
F0.0
sS'frac_other'
p2252
F0.03135257374331727
ssS'DIETRICH JANET R'
p2253
(dp2254
g3
I2572
sg4
F0.1036542684938879
sg5
F0.015698010104923967
sS'frac_bonus'
p2255
F0.08186866166027633
sg7
F0.015190393551404729
sg8
I00
sg9
F1.0
sg10
S'janet.dietrich@enron.com'
p2256
sg12
F0.10813781694605352
sS'frac_expenses'
p2257
F0.0024637282482927606
sS'frac_deferral_payments'
p2258
F0.5
sS'frac_exercised_stock_options'
p2259
F0.5
sg16
I0
sg17
F0.0
sg18
I63
sg19
F4.565756498070558e-05
sg20
F0.0
sS'frac_loan_advances'
p2260
F0.0
sS'frac_deferred_income'
p2261
F1.0
sS'frac_restricted_stock_deferred'
p2262
F1.0
sg24
F0.5456160451341783
sg25
F0.075
sg26
I1865087
sg27
I0
sg28
I0
sg29
F0.1681174171596938
sg30
F0.22506024703534191
sg31
I1410464
sg32
F0.2222222222222222
sg33
F0.04512640245316927
sS'frac_salary'
p2263
F0.18705361730159667
sS'frac_restricted_stock'
p2264
F0.0
sS'frac_long_term_incentive'
p2265
F0.07042783451436681
sg37
F0.7386562203059885
sS'frac_other'
p2266
F0.00033535063638632395
ssS'DERRICK JR. JAMES V'
p2267
(dp2268
g3
I2181
sg4
F0.0
sg5
F0.015698010104923967
sS'frac_bonus'
p2269
F0.2794356490211701
sg7
F0.22348019566101163
sg8
I00
sg9
F0.6336020061716946
sg10
S'james.derrick@enron.com'
p2270
sg12
F0.09406397983143891
sS'frac_expenses'
p2271
F0.09278722859771935
sS'frac_deferral_payments'
p2272
F0.5
sS'frac_exercised_stock_options'
p2273
F1.0
sg16
I0
sg17
F0.0
sg18
I909
sg19
F0.0007222196642402519
sg20
F0.0
sS'frac_loan_advances'
p2274
F0.0
sS'frac_deferred_income'
p2275
F0.9966756862125196
sS'frac_restricted_stock_deferred'
p2276
F0.6666666666666666
sg24
F0.1350151696957281
sg25
F0.1
sg26
I8831913
sg27
I0
sg28
I0
sg29
F0.2528978156628998
sg30
F0.4430789249661195
sg31
I550981
sg32
F0.022002200220022004
sg33
F0.2571274677725741
sS'frac_salary'
p2277
F0.9427006276055105
sS'frac_restricted_stock'
p2278
F0.0
sS'frac_long_term_incentive'
p2279
F0.15682506271553617
sg37
F0.6416309147967102
sS'frac_other'
p2280
F0.01357941562413223
ssS'FREVERT MARK A'
p2281
(dp2282
g3
I3275
sg4
F0.1036542684938879
sg5
F1.0
sS'frac_bonus'
p2283
F0.022310312361916385
sg7
F0.3802494284477822
sg8
I00
sg9
F0.039200875702619514
sg10
S'mark.frevert@enron.com'
p2284
sg12
F0.31426134316366705
sS'frac_expenses'
p2285
F0.005041985146526336
sS'frac_deferral_payments'
p2286
F0.686262246754534
sS'frac_exercised_stock_options'
p2287
F0.5
sg16
I0
sg17
F0.024532352039251762
sg18
I21
sg19
F0.7169705887094151
sg20
F0.0
sS'frac_loan_advances'
p2288
F0.14725754999342358
sS'frac_deferred_income'
p2289
F0.9997216024852762
sS'frac_restricted_stock_deferred'
p2290
F1.0
sg24
F0.3399870066590872
sg25
F0.25
sg26
I14622185
sg27
I0
sg28
I0
sg29
F0.39117154350086353
sg30
F0.9547125869959991
sg31
I17252530
sg32
F0.2857142857142857
sg33
F0.30375571671726975
sS'frac_salary'
p2291
F0.06487078941733797
sS'frac_restricted_stock'
p2292
F0.0
sS'frac_long_term_incentive'
p2293
F0.01673273427143729
sg37
F0.9085775673834436
sS'frac_other'
p2294
F0.4305235811791082
ssS'PAI LOU L'
p2295
(dp2296
g3
g41
sg4
F0.1036542684938879
sg5
F0.015698010104923967
sS'frac_bonus'
p2297
F0.06161737662869608
sg7
F0.14008821356600498
sg8
I00
sg9
F1.0
sg10
S'lou.pai@enron.com'
p2298
sg12
F0.0
sS'frac_expenses'
p2299
F0.01026034911504609
sS'frac_deferral_payments'
p2300
F0.5
sS'frac_exercised_stock_options'
p2301
F0.5
sg16
g46
(g50
S'\xabW\x82\x9a\xb3 \xc1?'
p2302
tp2303
Rp2304
sg17
F0.0
sg18
g41
sg19
F0.17659313288986614
sg20
F0.0
sS'frac_loan_advances'
p2305
F0.0
sS'frac_deferred_income'
p2306
F1.0
sS'frac_restricted_stock_deferred'
p2307
F1.0
sg24
F0.0
sg25
F0.125
sg26
I23817930
sg27
g46
(g50
S'\xf8\xe0\x83\x0f>\xf8\xb0?'
p2308
tp2309
Rp2310
sg28
g46
(g50
S'\t*\x1c\xdd2\xe7\x8a?'
p2311
tp2312
Rp2313
sg29
F0.6367693098264996
sg30
F0.23565994575517116
sg31
I3123383
sg32
F0.0
sg33
F0.4473039255645913
sS'frac_salary'
p2314
F0.08844837473101007
sS'frac_restricted_stock'
p2315
F0.0
sS'frac_long_term_incentive'
p2316
F0.0
sg37
F0.0
sS'frac_other'
p2317
F0.5857293197792266
ssS'BAY FRANKLIN R'
p2318
(dp2319
g3
g41
sg4
F0.09885355031730485
sg5
F0.055587036659831016
sS'frac_bonus'
p2320
F0.09300741657162372
sg7
F0.5645231090692113
sg8
I00
sg9
F0.9424603910642264
sg10
S'frank.bay@enron.com'
p2321
sg12
F0.0
sS'frac_expenses'
p2322
F0.15602588389940267
sS'frac_deferral_payments'
p2323
F0.657337355744138
sS'frac_exercised_stock_options'
p2324
F0.5
sg16
g46
(g50
S'\xabW\x82\x9a\xb3 \xc1?'
p2325
tp2326
Rp2327
sg17
F0.0
sg18
g41
sg19
F6.66040588513464e-06
sg20
F0.0
sS'frac_loan_advances'
p2328
F0.0
sS'frac_deferred_income'
p2329
F0.9996524785655544
sS'frac_restricted_stock_deferred'
p2330
F0.3333333333333333
sg24
F0.0
sg25
F0.05
sg26
I63014
sg27
g46
(g50
S'\xf8\xe0\x83\x0f>\xf8\xb0?'
p2331
tp2332
Rp2333
sg28
g46
(g50
S'\t*\x1c\xdd2\xe7\x8a?'
p2334
tp2335
Rp2336
sg29
F0.1583701980815129
sg30
F0.21567538771374425
sg31
I827696
sg32
F0.0
sg33
F0.0
sS'frac_salary'
p2337
F0.30546331238577995
sS'frac_restricted_stock'
p2338
F0.6666666666666666
sS'frac_long_term_incentive'
p2339
F0.0
sg37
F0.0
sS'frac_other'
p2340
F8.336394038390907e-05
ssS'HAYSLETT RODERICK J'
p2341
(dp2342
g3
I2649
sg4
F0.1036542684938879
sg5
F0.015698010104923967
sS'frac_bonus'
p2343
F0.0
sg7
F0.0
sg8
I00
sg9
F1.0
sg10
S'rod.hayslett@enron.com'
p2344
sg12
F0.0
sS'frac_expenses'
p2345
F0.0
sS'frac_deferral_payments'
p2346
F0.5
sS'frac_exercised_stock_options'
p2347
F0.5
sg16
I0
sg17
F0.0
sg18
I1061
sg19
F0.0
sg20
F0.0
sS'frac_loan_advances'
p2348
F0.0
sS'frac_deferred_income'
p2349
F1.0
sS'frac_restricted_stock_deferred'
p2350
F1.0
sg24
F0.06079170783033341
sg25
F0.0
sg26
I346663
sg27
I0
sg28
I0
sg29
F0.1699367575513423
sg30
F0.0
sg31
F0.0
sg32
F0.03581526861451461
sg33
F0.0
sS'frac_salary'
p2351
F0.0
sS'frac_restricted_stock'
p2352
F0.3333333333333333
sS'frac_long_term_incentive'
p2353
F0.0
sg37
F0.21530641069165604
sS'frac_other'
p2354
F0.0
ssS'FUGH JOHN L'
p2355
(dp2356
g3
g41
sg4
F0.1036542684938879
sg5
F0.023446088438760147
sS'frac_bonus'
p2357
F0.0
sg7
F0.0
sg8
I00
sg9
F1.0
sg10
g41
sg12
F0.0
sS'frac_expenses'
p2358
F0.0
sS'frac_deferral_payments'
p2359
F1.0
sS'frac_exercised_stock_options'
p2360
F1.0
sg16
g46
(g50
S'\xabW\x82\x9a\xb3 \xc1?'
p2361
tp2362
Rp2363
sg17
F0.0
sg18
g41
sg19
F0.0
sg20
F0.0
sS'frac_loan_advances'
p2364
F0.0
sS'frac_deferred_income'
p2365
F1.0
sS'frac_restricted_stock_deferred'
p2366
F1.0
sg24
F0.0
sg25
F0.0
sg26
I176378
sg27
g46
(g50
S'\xf8\xe0\x83\x0f>\xf8\xb0?'
p2367
tp2368
Rp2369
sg28
g46
(g50
S'\t*\x1c\xdd2\xe7\x8a?'
p2370
tp2371
Rp2372
sg29
F0.1499748016029313
sg30
F0.0
sg31
I50591
sg32
F0.0
sg33
F0.0051349722886526485
sS'frac_salary'
p2373
F0.0
sS'frac_restricted_stock'
p2374
F0.0
sS'frac_long_term_incentive'
p2375
F0.0
sg37
F0.0
sS'frac_other'
p2376
F0.0
ssS'FALLON JAMES B'
p2377
(dp2378
g3
I1755
sg4
F0.1036542684938879
sg5
F0.015698010104923967
sS'frac_bonus'
p2379
F0.13087382197148975
sg7
F0.4193160607266035
sg8
I00
sg9
F1.0
sg10
S'jim.fallon@enron.com'
p2380
sg12
F0.07275324102884227
sS'frac_expenses'
p2381
F0.026092254796890386
sS'frac_deferral_payments'
p2382
F0.5
sS'frac_exercised_stock_options'
p2383
F0.5
sg16
I0
sg17
F0.0
sg18
I75
sg19
F0.03875400601695276
sg20
F0.0
sS'frac_loan_advances'
p2384
F0.0
sS'frac_deferred_income'
p2385
F1.0
sS'frac_restricted_stock_deferred'
p2386
F1.0
sg24
F0.11011092925986543
sg25
F0.3125
sg26
I2332399
sg27
I0
sg28
I0
sg29
F0.23013875702341977
sg30
F0.27409296491003887
sg31
I3676340
sg32
F0.49333333333333335
sg33
F0.027374126247103794
sS'frac_salary'
p2387
F0.08740002261219627
sS'frac_restricted_stock'
p2388
F0.0
sS'frac_long_term_incentive'
p2389
F0.01817880866619755
sg37
F0.9129143930059263
sS'frac_other'
p2390
F0.10920671102237552
ssS'KOENIG MARK E'
p2391
(dp2392
g3
I2374
sg4
F0.1036542684938879
sg5
F0.015698010104923967
sS'frac_bonus'
p2393
F0.08486612352152746
sg7
F0.5552340194874171
sg8
I01
sg9
F1.0
sg10
S'mark.koenig@enron.com'
p2394
sg12
F0.058304119730230725
sS'frac_expenses'
p2395
F0.08001469049483408
sS'frac_deferral_payments'
p2396
F0.5
sS'frac_exercised_stock_options'
p2397
F0.5
sg16
I0
sg17
F0.0
sg18
I61
sg19
F0.014523352879211415
sg20
F0.0
sS'frac_loan_advances'
p2398
F0.0
sS'frac_deferred_income'
p2399
F1.0
sS'frac_restricted_stock_deferred'
p2400
F1.0
sg24
F0.10271962214773522
sg25
F0.0875
sg26
I1920055
sg27
I0
sg28
I0
sg29
F0.2218569145645353
sg30
F0.27891452749946455
sg31
I1587421
sg32
F0.2459016393442623
sg33
F0.01955658234169037
sS'frac_salary'
p2401
F0.20597207300695486
sS'frac_restricted_stock'
p2402
F0.0
sS'frac_long_term_incentive'
p2403
F0.03373928420549429
sg37
F0.9555187876287548
sS'frac_other'
p2404
F0.0947814095945562
ssS'SAVAGE FRANK'
p2405
(dp2406
g3
g41
sg4
F0.1036542684938879
sg5
F0.015698010104923967
sS'frac_bonus'
p2407
F0.0
sg7
F0.0
sg8
I00
sg9
F0.9653907988446478
sg10
g41
sg12
F0.0
sS'frac_expenses'
p2408
F0.0
sS'frac_deferral_payments'
p2409
F0.5
sS'frac_exercised_stock_options'
p2410
F0.5
sg16
g46
(g50
S'\xabW\x82\x9a\xb3 \xc1?'
p2411
tp2412
Rp2413
sg17
F0.0
sg18
g41
sg19
F0.0
sg20
F0.9069372715139558
sS'frac_loan_advances'
p2414
F0.0
sS'frac_deferred_income'
p2415
F0.9538633715662651
sS'frac_restricted_stock_deferred'
p2416
F1.0
sg24
F0.0
sg25
F0.0
sg26
F0.0
sg27
g46
(g50
S'\xf8\xe0\x83\x0f>\xf8\xb0?'
p2417
tp2418
Rp2419
sg28
g46
(g50
S'\t*\x1c\xdd2\xe7\x8a?'
p2420
tp2421
Rp2422
sg29
F0.1499748016029313
sg30
F0.0
sg31
I3750
sg32
F0.0
sg33
F0.0
sS'frac_salary'
p2423
F0.0
sS'frac_restricted_stock'
p2424
F0.0
sS'frac_long_term_incentive'
p2425
F0.0
sg37
F0.0
sS'frac_other'
p2426
F0.0
ssS'IZZO LAWRENCE L'
p2427
(dp2428
g3
I496
sg4
F0.1036542684938879
sg5
F0.015698010104923967
sS'frac_bonus'
p2429
F0.0
sg7
F0.122803949939457
sg8
I00
sg9
F1.0
sg10
S'larry.izzo@enron.com'
p2430
sg12
F0.06073345805232367
sS'frac_expenses'
p2431
F0.014191279432773152
sS'frac_deferral_payments'
p2432
F0.5
sS'frac_exercised_stock_options'
p2433
F0.5
sg16
I0
sg17
F0.0
sg18
I19
sg19
F0.149977764862382
sg20
F0.0
sS'frac_loan_advances'
p2434
F0.0
sS'frac_deferred_income'
p2435
F1.0
sS'frac_restricted_stock_deferred'
p2436
F1.0
sg24
F0.2597374742621826
sg25
F0.0
sg26
I5819980
sg27
I0
sg28
I0
sg29
F0.36043024765832266
sg30
F0.07673645544059075
sg31
I1979596
sg32
F0.2631578947368421
sg33
F0.0630356292744369
sS'frac_salary'
p2437
F0.045441691910603536
sS'frac_restricted_stock'
p2438
F0.0
sS'frac_long_term_incentive'
p2439
F0.02818254345034813
sg37
F0.8800403225806452
sS'frac_other'
p2440
F0.784871761712996
ssS'TILNEY ELIZABETH A'
p2441
(dp2442
g3
I460
sg4
F0.1036542684938879
sg5
F0.015698010104923967
sS'frac_bonus'
p2443
F0.14456037036202438
sg7
F0.0
sg8
I00
sg9
F0.8359199015176981
sg10
S'elizabeth.tilney@enron.com'
p2444
sg12
F0.05344544308604483
sS'frac_expenses'
p2445
F0.0
sS'frac_deferral_payments'
p2446
F0.5
sS'frac_exercised_stock_options'
p2447
F0.5
sg16
I0
sg17
F0.0
sg18
I19
sg19
F0.014677507490784749
sg20
F0.0
sS'frac_loan_advances'
p2448
F0.0
sS'frac_deferred_income'
p2449
F0.9979462810718881
sS'frac_restricted_stock_deferred'
p2450
F1.0
sg24
F0.10002312673450509
sg25
F0.0375
sg26
I1168042
sg27
I0
sg28
I0
sg29
F0.1831883158672049
sg30
F0.22257477561466374
sg31
I399393
sg32
F0.5789473684210527
sg33
F0.017213327998196363
sS'frac_salary'
p2451
F0.6532882109969861
sS'frac_restricted_stock'
p2452
F0.0
sS'frac_long_term_incentive'
p2453
F0.12292464877962085
sg37
F0.822970351208835
sS'frac_other'
p2454
F0.3807152353696735
ssS'MARTIN AMANDA K'
p2455
(dp2456
g3
I1522
sg4
F0.1036542684938879
sg5
F0.028781727209935232
sS'frac_bonus'
p2457
F0.0
sg7
F0.03589304214405301
sg8
I00
sg9
F1.0
sg10
S'a..martin@enron.com'
p2458
sg12
F1.0
sS'frac_expenses'
p2459
F0.0009766842361189749
sS'frac_deferral_payments'
p2460
F0.5050808753070055
sS'frac_exercised_stock_options'
p2461
F1.0
sg16
I0
sg17
F0.0
sg18
I230
sg19
F0.2720586609939314
sg20
F0.0
sS'frac_loan_advances'
p2462
F0.0
sS'frac_deferred_income'
p2463
F1.0
sS'frac_restricted_stock_deferred'
p2464
F1.0
sg24
F0.0241843039673442
sg25
F0.0
sg26
I2070306
sg27
I0
sg28
I0
sg29
F0.1499748016029313
sg30
F0.3144967235331489
sg31
I8407016
sg32
F0.0
sg33
F0.06027375261671699
sS'frac_salary'
p2465
F0.04385343098119331
sS'frac_restricted_stock'
p2466
F0.0
sS'frac_long_term_incentive'
p2467
F0.1092664590027947
sg37
F0.3130448314123594
sS'frac_other'
p2468
F0.3352502243364352
ssS'BUY RICHARD B'
p2469
(dp2470
g3
I3523
sg4
F0.1036542684938879
sg5
F0.11518265591952817
sS'frac_bonus'
p2471
F0.0735276363478912
sg7
F0.0
sg8
I00
sg9
F0.80171647757981
sg10
S'rick.buy@enron.com'
p2472
sg12
F0.1496204207458496
sS'frac_expenses'
p2473
F0.0
sS'frac_deferral_payments'
p2474
F0.6378748245745854
sS'frac_exercised_stock_options'
p2475
F0.5
sg16
I0
sg17
F0.0
sg18
I1053
sg19
F0.038666262408987725
sg20
F0.0
sS'frac_loan_advances'
p2476
F0.0
sS'frac_deferred_income'
p2477
F0.9995792231662087
sS'frac_restricted_stock_deferred'
p2478
F1.0
sg24
F0.20373714375441626
sg25
F0.1125
sg26
I3444470
sg27
I0
sg28
I0
sg29
F0.20189507378247287
sg30
F0.29745207683544234
sg31
I2355702
sg32
F0.06742640075973409
sg33
F0.07403006208385234
sS'frac_salary'
p2479
F0.14802190212166802
sS'frac_restricted_stock'
p2480
F0.0
sS'frac_long_term_incentive'
p2481
F0.058344411565598726
sg37
F0.6614620106771391
sS'frac_other'
p2482
F0.17004357936615072
ssS'GRAMM WENDY L'
p2483
(dp2484
g3
g41
sg4
F0.1036542684938879
sg5
F0.015698010104923967
sS'frac_bonus'
p2485
F0.0
sg7
F0.0
sg8
I00
sg9
F1.0
sg10
g41
sg12
F0.0
sS'frac_expenses'
p2486
F0.0
sS'frac_deferral_payments'
p2487
F0.5
sS'frac_exercised_stock_options'
p2488
F0.5
sg16
g46
(g50
S'\xabW\x82\x9a\xb3 \xc1?'
p2489
tp2490
Rp2491
sg17
F0.0
sg18
g41
sg19
F0.0
sg20
F0.8652875297394533
sS'frac_loan_advances'
p2492
F0.0
sS'frac_deferred_income'
p2493
F1.0
sS'frac_restricted_stock_deferred'
p2494
F1.0
sg24
F0.0
sg25
F0.0
sg26
F0.0
sg27
g46
(g50
S'\xf8\xe0\x83\x0f>\xf8\xb0?'
p2495
tp2496
Rp2497
sg28
g46
(g50
S'\t*\x1c\xdd2\xe7\x8a?'
p2498
tp2499
Rp2500
sg29
F0.1499748016029313
sg30
F0.0
sg31
I119292
sg32
F0.0
sg33
F0.0
sS'frac_salary'
p2501
F0.0
sS'frac_restricted_stock'
p2502
F0.0
sS'frac_long_term_incentive'
p2503
F0.0
sg37
F0.0
sS'frac_other'
p2504
F0.0
ssS'CAUSEY RICHARD A'
p2505
(dp2506
g3
I1892
sg4
F0.1036542684938879
sg5
F0.015698010104923967
sS'frac_bonus'
p2507
F0.1029853339312349
sg7
F0.13408636886209746
sg8
I01
sg9
F0.9329411771420157
sg10
S'richard.causey@enron.com'
p2508
sg12
F0.06802147301860251
sS'frac_expenses'
p2509
F0.016414110334243386
sS'frac_deferral_payments'
p2510
F0.5
sS'frac_exercised_stock_options'
p2511
F0.5
sg16
I0
sg17
F0.0
sg18
I49
sg19
F0.029720372029036667
sg20
F0.0
sS'frac_loan_advances'
p2512
F0.0
sS'frac_deferred_income'
p2513
F0.9998206140572173
sS'frac_restricted_stock_deferred'
p2514
F1.0
sg24
F0.14104741127254733
sg25
F0.125
sg26
I2502063
sg27
I0
sg28
I0
sg29
F0.29405153141300355
sg30
F0.3736207073424893
sg31
I1868758
sg32
F0.24489795918367346
sg33
F0.0
sS'frac_salary'
p2515
F0.234372795037848
sS'frac_restricted_stock'
p2516
F0.3333333333333333
sS'frac_long_term_incentive'
p2517
F0.033436569271265516
sg37
F0.8367793334333167
sS'frac_other'
p2518
F0.16475916089723763
ssS'TAYLOR MITCHELL S'
p2519
(dp2520
g3
I533
sg4
F0.1036542684938879
sg5
F0.0505321242547274
sS'frac_bonus'
p2521
F0.10568015939040673
sg7
F0.0
sg8
I00
sg9
F1.0
sg10
S'mitchell.taylor@enron.com'
p2522
sg12
F0.0
sS'frac_expenses'
p2523
F0.0
sS'frac_deferral_payments'
p2524
F0.6040801235147525
sS'frac_exercised_stock_options'
p2525
F0.5
sg16
I0
sg17
F0.0
sg18
I29
sg19
F0.0
sg20
F0.0
sS'frac_loan_advances'
p2526
F0.0
sS'frac_deferred_income'
p2527
F1.0
sS'frac_restricted_stock_deferred'
p2528
F1.0
sg24
F0.0
sg25
F0.075
sg26
I3745048
sg27
I0
sg28
I0
sg29
F0.18244008010049875
sg30
F0.23866104900932097
sg31
I1092663
sg32
F0.0
sg33
F0.09261716650192335
sS'frac_salary'
p2529
F0.2560499137355118
sS'frac_restricted_stock'
p2530
F0.0
sS'frac_long_term_incentive'
p2531
F0.0
sg37
F0.562207787189648
sS'frac_other'
p2532
F0.0
ssS'DONAHUE JR JEFFREY M'
p2533
(dp2534
g3
I865
sg4
F0.1036542684938879
sg5
F0.015698010104923967
sS'frac_bonus'
p2535
F0.17580585244054686
sg7
F0.4208198004047857
sg8
I00
sg9
F0.9143929920961903
sg10
S'jeff.donahue@enron.com'
p2536
sg12
F0.0
sS'frac_expenses'
p2537
F0.1099250936329588
sS'frac_deferral_payments'
p2538
F0.5
sS'frac_exercised_stock_options'
p2539
F0.5
sg16
I0
sg17
F0.0
sg18
I22
sg19
F8.600611077760817e-05
sg20
F0.0
sS'frac_loan_advances'
p2540
F0.0
sS'frac_deferred_income'
p2541
F0.9995113366593257
sS'frac_restricted_stock_deferred'
p2542
F1.0
sg24
F1.0
sg25
F0.1
sg26
I1080988
sg27
I0
sg28
I0
sg29
F0.1681174171596938
sg30
F0.25070775643459936
sg31
I875760
sg32
F0.5
sg33
F0.022298574512268174
sS'frac_salary'
p2543
F0.3355923027630106
sS'frac_restricted_stock'
p2544
F0.0
sS'frac_long_term_incentive'
p2545
F0.0
sg37
F0.8914643986190659
sS'frac_other'
p2546
F0.0010174020279528637
ssS'GLISAN JR BEN F'
p2547
(dp2548
g3
I873
sg4
F0.1036542684938879
sg5
F0.015698010104923967
sS'frac_bonus'
p2549
F0.09076023906612046
sg7
F0.5506922010989539
sg8
I01
sg9
F1.0
sg10
S'ben.glisan@enron.com'
p2550
sg12
F0.013803111652000589
sS'frac_expenses'
p2551
F0.09901720056213864
sS'frac_deferral_payments'
p2552
F0.5
sS'frac_exercised_stock_options'
p2553
F0.5
sg16
I0
sg17
F0.0
sg18
I16
sg19
F0.019335254812167385
sg20
F0.0
sS'frac_loan_advances'
p2554
F0.0
sS'frac_deferred_income'
p2555
F1.0
sS'frac_restricted_stock_deferred'
p2556
F1.0
sg24
F0.27406107577197725
sg25
F0.075
sg26
I778546
sg27
I0
sg28
I0
sg29
F0.17265209213492153
sg30
F0.24744478779905296
sg31
I1272284
sg32
F0.375
sg33
F0.011200759837784508
sS'frac_salary'
p2557
F0.22799407999604676
sS'frac_restricted_stock'
p2558
F0.0
sS'frac_long_term_incentive'
p2559
F0.009966018257131636
sg37
F1.0
sS'frac_other'
p2560
F0.1574396911381421
ss.